******************************************************************************
                  TI ARM Linker PC v20.2.6                     
******************************************************************************
>> Linked Thu Jun 30 19:26:12 2022

OUTPUT FILE NAME:   <STIM.out>
ENTRY POINT SYMBOL: "_c_int00"  address: 00018bf9


MEMORY CONFIGURATION

         name            origin    length      used     unused   attr    fill
----------------------  --------  ---------  --------  --------  ----  --------
  FLASH                 00000000   00040000  000275d6  00018a2a  R  X
  SRAM                  20000000   00008000  0000718e  00000e72  RW X


SEGMENT ALLOCATION MAP

run origin  load origin   length   init length attrs members
----------  ----------- ---------- ----------- ----- -------
00000000    00000000    000275e0   000275e0    r-x
  00000000    00000000    0000003c   0000003c    r-- .resetVecs
  0000003c    0000003c    00000004   00000004    r-- .init_array
  00000040    00000040    00022a8a   00022a8a    r-x .text
  00022ad0    00022ad0    00004824   00004824    r-- .const
  000272f8    000272f8    000002e8   000002e8    r-- .cinit
20000000    20000000    00000360   00000000    rw-
  20000000    20000000    00000360   00000000    rw- .vecs
20000380    20000380    00006bc8   00000000    rw-
  20000380    20000380    00005978   00000000    rw- .bss
  20005cf8    20005cf8    00000f4a   00000000    rw- .data
  20006c48    20006c48    00000300   00000000    rw- .stack
20007000    20007000    0000026c   00000000    rw-
  20007000    20007000    0000026c   00000000    rw- .vtable


SECTION ALLOCATION MAP

 output                                  attributes/
section   page    origin      length       input sections
--------  ----  ----------  ----------   ----------------
.resetVecs 
*          0    00000000    0000003c     
                  00000000    0000003c     empty_pem4f.oem4f (.resetVecs)

.text      0    00000040    00022a8a     
                  00000040    00000b14     rtsv7M4_T_le_v4SPD16_eabi.lib : _scanfi.c.obj (.text:__TI_scanfi)
                  00000b54    00000a4e                                   : _printfi.c.obj (.text:__TI_printfi)
                  000015a2    00000002                                   : string.cpp.obj (.text:_ZNKSt3__222__compressed_pair_elemINS_12basic_stringIwNS_11char_traitsIwEENS_9allocatorIwEEE5__repELi0ELb0EE5__getEv)
                  000015a4    00000956                                   : locale.cpp.obj (.text:_ZNSt3__29money_getIcNS_19istreambuf_iteratorIcNS_11char_traitsIcEEEEE8__do_getERS4_S4_bRKNS_6localeEjRjRbRKNS_5ctypeIcEERNS_10unique_ptrIcPFvPvEEERPcSM_)
                  00001efa    00000002                                   : locale.cpp.obj (.text:_ZNKSt3__28messagesIcE8do_closeEi)
                  00001efc    00000870                                   : locale.cpp.obj (.text:_ZNSt3__29money_getIwNS_19istreambuf_iteratorIwNS_11char_traitsIwEEEEE8__do_getERS4_S4_bRKNS_6localeEjRjRbRKNS_5ctypeIwEERNS_10unique_ptrIwPFvPvEEERPwSM_)
                  0000276c    00000464                                   : strftime.c.obj (.text:strftime)
                  00002bd0    00000460                                   : locale.cpp.obj (.text:_ZNSt3__26locale5__impC1Ej)
                  00003030    00000460                                   : strtod.c.obj (.text:strtod)
                  00003490    00000430     sysbios.aem4f : BIOS.obj (.text:ti_sysbios_family_arm_m3_Hwi_excDumpRegs__I)
                  000038c0    000003c8     rtsv7M4_T_le_v4SPD16_eabi.lib : strtof.c.obj (.text:strtof)
                  00003c88    000003b0                                   : locale.cpp.obj (.text:_ZNSt3__211__money_getIcE13__gather_infoEbRKNS_6localeERNS_10money_base7patternERcS8_RNS_12basic_stringIcNS_11char_traitsIcEENS_9allocatorIcEEEESF_SF_SF_Ri)
                  00004038    000003b0                                   : locale.cpp.obj (.text:_ZNSt3__211__money_getIwE13__gather_infoEbRKNS_6localeERNS_10money_base7patternERwS8_RNS_12basic_stringIcNS_11char_traitsIcEENS_9allocatorIcEEEERNS9_IwNSA_IwEENSC_IwEEEESJ_SJ_Ri)
                  000043e8    0000034c     ti.targets.arm.rtsarm.aem4f : System.oem4f (.text:xdc_runtime_System_doPrint__I)
                  00004734    00000348     rtsv7M4_T_le_v4SPD16_eabi.lib : locale.cpp.obj (.text:_ZNSt3__211__money_putIcE13__gather_infoEbbRKNS_6localeERNS_10money_base7patternERcS8_RNS_12basic_stringIcNS_11char_traitsIcEENS_9allocatorIcEEEESF_SF_Ri)
                  00004a7c    00000348                                   : locale.cpp.obj (.text:_ZNSt3__211__money_putIwE13__gather_infoEbbRKNS_6localeERNS_10money_base7patternERwS8_RNS_12basic_stringIcNS_11char_traitsIcEENS_9allocatorIcEEEERNS9_IwNSA_IwEENSC_IwEEEESJ_Ri)
                  00004dc4    000002fc                                   : locale.cpp.obj (.text:_ZNKSt3__28time_getIcNS_19istreambuf_iteratorIcNS_11char_traitsIcEEEEE6do_getES4_S4_RNS_8ios_baseERjP2tmcc)
                  000050c0    000002f8                                   : locale.cpp.obj (.text:_ZNKSt3__28time_getIwNS_19istreambuf_iteratorIwNS_11char_traitsIwEEEEE6do_getES4_S4_RNS_8ios_baseERjP2tmcc)
                  000053b8    000002ee     Can.obj (.text:_ZNSt3__213__tree_removeIPNS_16__tree_node_baseIPvEEEEvT_S5_)
                  000056a6    00000002     rtsv7M4_T_le_v4SPD16_eabi.lib : locale.cpp.obj (.text:_ZNKSt3__28messagesIwE8do_closeEi)
                  000056a8    000002b8     sysbios.aem4f : BIOS.obj (.text:ti_sysbios_knl_Semaphore_pend__E)
                  00005960    000002a4     rtsv7M4_T_le_v4SPD16_eabi.lib : locale.cpp.obj (.text:_ZNSt3__211__money_putIwE8__formatEPwRS2_S3_jPKwS5_RKNS_5ctypeIwEEbRKNS_10money_base7patternEwwRKNS_12basic_stringIcNS_11char_traitsIcEENS_9allocatorIcEEEERKNSE_IwNSF_IwEENSH_IwEEEESQ_i)
                  00005c04    0000029a                                   : locale.cpp.obj (.text:_ZNSt3__211__money_putIcE8__formatEPcRS2_S3_jPKcS5_RKNS_5ctypeIcEEbRKNS_10money_base7patternEccRKNS_12basic_stringIcNS_11char_traitsIcEENS_9allocatorIcEEEESL_SL_i)
                  00005e9e    00000002                                   : locale.cpp.obj (.text:_ZNSt3__212__do_nothingEPv)
                  00005ea0    00000278                                   : locale.cpp.obj (.text:_ZNKSt3__220__time_get_c_storageIwE8__monthsEv)
                  00006118    00000274                                   : locale.cpp.obj (.text:_ZNKSt3__29money_getIcNS_19istreambuf_iteratorIcNS_11char_traitsIcEEEEE6do_getES4_S4_bRNS_8ios_baseERjRNS_12basic_stringIcS3_NS_9allocatorIcEEEE)
                  0000638c    00000274                                   : locale.cpp.obj (.text:_ZNSt3__29__num_putIwE23__widen_and_group_floatEPcS2_S2_PwRS3_S4_RKNS_6localeE)
                  00006600    00000270                                   : _printfi.c.obj (.text:_pconv_a)
                  00006870    0000026c     sysbios.aem4f : BIOS.obj (.text:ti_sysbios_heaps_HeapMem_free__E)
                  00006adc    00000268     rtsv7M4_T_le_v4SPD16_eabi.lib : locale.cpp.obj (.text:_ZNSt3__29__num_putIcE23__widen_and_group_floatEPcS2_S2_S2_RS2_S3_RKNS_6localeE)
                  00006d44    0000025e     isotp.obj (.text:_Z20isotp_on_can_messageP9IsoTpLinkPhh)
                  00006fa2    00000002     rtsv7M4_T_le_v4SPD16_eabi.lib : memory.cpp.obj (.text:_ZNSt3__214__shared_countD1Ev)
                  00006fa4    00000250                                   : locale.cpp.obj (.text:_ZNKSt3__29money_putIwNS_19ostreambuf_iteratorIwNS_11char_traitsIwEEEEE6do_putES4_bRNS_8ios_baseEwe)
                  000071f4    00000004                                   : typeinfo.c.obj (.text:_ZN10__cxxabiv117__class_type_infoD1Ev)
                  000071f8    00000250     sysbios.aem4f : BIOS.obj (.text:ti_sysbios_heaps_HeapMem_alloc__E)
                  00007448    00000248     rtsv7M4_T_le_v4SPD16_eabi.lib : locale.cpp.obj (.text:_ZNKSt3__29money_getIwNS_19istreambuf_iteratorIwNS_11char_traitsIwEEEEE6do_getES4_S4_bRNS_8ios_baseERjRNS_12basic_stringIwS3_NS_9allocatorIwEEEE)
                  00007690    0000023c                                   : locale.cpp.obj (.text:_ZNKSt3__29money_putIcNS_19ostreambuf_iteratorIcNS_11char_traitsIcEEEEE6do_putES4_bRNS_8ios_baseEce)
                  000078cc    00000004                                   : typeinfo.c.obj (.text:_ZN10__cxxabiv120__si_class_type_infoD1Ev)
                  000078d0    00000234     sysbios.aem4f : BIOS.obj (.text:ti_sysbios_knl_Task_Instance_finalize__E)
                  00007b04    0000021c     empty_pem4f.oem4f (.text:xdc_runtime_System_printfExtend__I)
                  00007d20    000001fc     rtsv7M4_T_le_v4SPD16_eabi.lib : locale.cpp.obj (.text:_ZNKSt3__220__time_get_c_storageIcE8__monthsEv)
                  00007f1c    000001f8                                   : locale.cpp.obj (.text:_ZNKSt3__29money_putIwNS_19ostreambuf_iteratorIwNS_11char_traitsIwEEEEE6do_putES4_bRNS_8ios_baseEwRKNS_12basic_stringIwS3_NS_9allocatorIwEEEE)
                  00008114    000001f4                                   : locale.cpp.obj (.text:_ZNKSt3__29money_putIcNS_19ostreambuf_iteratorIcNS_11char_traitsIcEEEEE6do_putES4_bRNS_8ios_baseEcRKNS_12basic_stringIcS3_NS_9allocatorIcEEEE)
                  00008308    000001f4     sysbios.aem4f : BIOS.obj (.text:ti_sysbios_family_arm_m3_Hwi_excHandlerMax__I)
                  000084fc    000001f0     rtsv7M4_T_le_v4SPD16_eabi.lib : locale.cpp.obj (.text:_ZNSt3__214__scan_keywordINS_19istreambuf_iteratorIcNS_11char_traitsIcEEEEPKNS_12basic_stringIcS3_NS_9allocatorIcEEEENS_5ctypeIcEEEET0_RT_SE_SD_SD_RKT1_Rjb)
                  000086ec    000001ec                                   : locale.cpp.obj (.text:_ZNSt3__214__scan_keywordINS_19istreambuf_iteratorIwNS_11char_traitsIwEEEEPKNS_12basic_stringIwS3_NS_9allocatorIwEEEENS_5ctypeIwEEEET0_RT_SE_SD_SD_RKT1_Rjb)
                  000088d8    000001e0     Codec.obj (.text:_ZNSt3__215basic_stringbufIcNS_11char_traitsIcEENS_9allocatorIcEEE7seekoffExNS_8ios_base7seekdirEj)
                  00008ab8    000001dc     rtsv7M4_T_le_v4SPD16_eabi.lib : strtoll.c.obj (.text:strtoll)
                  00008c94    000001d8                                   : locale.cpp.obj (.text:_ZNKSt3__27num_getIwNS_19istreambuf_iteratorIwNS_11char_traitsIwEEEEE15__do_get_signedIlEES4_S4_S4_RNS_8ios_baseERjRT_)
                  00008e6c    000001d8                                   : locale.cpp.obj (.text:_ZNKSt3__27num_getIwNS_19istreambuf_iteratorIwNS_11char_traitsIwEEEEE15__do_get_signedIxEES4_S4_S4_RNS_8ios_baseERjRT_)
                  00009044    000001d8                                   : locale.cpp.obj (.text:_ZNKSt3__27num_getIwNS_19istreambuf_iteratorIwNS_11char_traitsIwEEEEE17__do_get_unsignedIjEES4_S4_S4_RNS_8ios_baseERjRT_)
                  0000921c    000001d8                                   : locale.cpp.obj (.text:_ZNKSt3__27num_getIwNS_19istreambuf_iteratorIwNS_11char_traitsIwEEEEE17__do_get_unsignedImEES4_S4_S4_RNS_8ios_baseERjRT_)
                  000093f4    000001d8                                   : locale.cpp.obj (.text:_ZNKSt3__27num_getIwNS_19istreambuf_iteratorIwNS_11char_traitsIwEEEEE17__do_get_unsignedItEES4_S4_S4_RNS_8ios_baseERjRT_)
                  000095cc    000001d8                                   : locale.cpp.obj (.text:_ZNKSt3__27num_getIwNS_19istreambuf_iteratorIwNS_11char_traitsIwEEEEE17__do_get_unsignedIyEES4_S4_S4_RNS_8ios_baseERjRT_)
                  000097a4    000001d2                                   : locale.cpp.obj (.text:_ZN32_INTERNAL_10_locale_cpp_a7183203St3__213utf8_to_utf16EPKhS1_RS1_PtS3_RS3_mNS_12codecvt_modeE)
                  00009976    00000002                                   : ios.cpp.obj (.text:_ZNSt3__215basic_streambufIcNS_11char_traitsIcEEE5imbueERKNS_6localeE)
                  00009978    000001d0                                   : _printfi.c.obj (.text:_pconv_g)
                  00009b48    000001d0     empty_pem4f.oem4f (.text:ti_uia_loggers_LoggerStopMode_writeMemoryRange__E)
                  00009d18    000001cc     main.obj (.text:_Z8mainTaskv)
                  00009ee4    000001cc     rtsv7M4_T_le_v4SPD16_eabi.lib : locale.cpp.obj (.text:_ZNSt3__29__num_putIwE21__widen_and_group_intEPcS2_S2_PwRS3_S4_RKNS_6localeE)
                  0000a0b0    000001c8                                   : locale.cpp.obj (.text:_ZNSt3__29__num_putIcE21__widen_and_group_intEPcS2_S2_S2_RS2_S3_RKNS_6localeE)
                  0000a278    000001c4                                   : locale.cpp.obj (.text:_ZNKSt3__27num_getIwNS_19istreambuf_iteratorIwNS_11char_traitsIwEEEEE6do_getES4_S4_RNS_8ios_baseERjRPv)
                  0000a43c    00000004                                   : typeinfo.c.obj (.text:_ZN10__cxxabiv121__vmi_class_type_infoD1Ev)
                  0000a440    000001c0     sysbios.aem4f : BIOS.obj (.text:ti_sysbios_knl_Task_Instance_init__E)
                  0000a600    000001b6     rtsv7M4_T_le_v4SPD16_eabi.lib : fd_add_t2.asm.obj (.text)
                  0000a7b6    00000002                                   : ios.cpp.obj (.text:_ZNSt3__215basic_streambufIcNS_11char_traitsIcEEE6setbufEPci)
                  0000a7b8    000001b0                                   : locale.cpp.obj (.text:_ZNKSt3__220__time_get_c_storageIwE7__weeksEv)
                  0000a968    000001b0                                   : locale.cpp.obj (.text:_ZNKSt3__27num_getIcNS_19istreambuf_iteratorIcNS_11char_traitsIcEEEEE15__do_get_signedIxEES4_S4_S4_RNS_8ios_baseERjRT_)
                  0000ab18    000001b0                                   : locale.cpp.obj (.text:_ZNKSt3__27num_getIcNS_19istreambuf_iteratorIcNS_11char_traitsIcEEEEE17__do_get_unsignedIyEES4_S4_S4_RNS_8ios_baseERjRT_)
                  0000acc8    000001b0                                   : locale.cpp.obj (.text:_ZNKSt3__27num_getIcNS_19istreambuf_iteratorIcNS_11char_traitsIcEEEEE6do_getES4_S4_RNS_8ios_baseERjRPv)
                  0000ae78    000001ac                                   : locale.cpp.obj (.text:_ZNKSt3__27num_getIcNS_19istreambuf_iteratorIcNS_11char_traitsIcEEEEE15__do_get_signedIlEES4_S4_S4_RNS_8ios_baseERjRT_)
                  0000b024    000001ac                                   : locale.cpp.obj (.text:_ZNKSt3__27num_getIcNS_19istreambuf_iteratorIcNS_11char_traitsIcEEEEE17__do_get_unsignedIjEES4_S4_S4_RNS_8ios_baseERjRT_)
                  0000b1d0    000001ac                                   : locale.cpp.obj (.text:_ZNKSt3__27num_getIcNS_19istreambuf_iteratorIcNS_11char_traitsIcEEEEE17__do_get_unsignedImEES4_S4_S4_RNS_8ios_baseERjRT_)
                  0000b37c    000001ac                                   : locale.cpp.obj (.text:_ZNKSt3__27num_getIcNS_19istreambuf_iteratorIcNS_11char_traitsIcEEEEE17__do_get_unsignedItEES4_S4_S4_RNS_8ios_baseERjRT_)
                  0000b528    000001ac                                   : locale.cpp.obj (.text:_ZNKSt3__27num_getIcNS_19istreambuf_iteratorIcNS_11char_traitsIcEEEEE23__do_get_floating_pointIdEES4_S4_S4_RNS_8ios_baseERjRT_)
                  0000b6d4    000001ac                                   : locale.cpp.obj (.text:_ZNKSt3__27num_getIcNS_19istreambuf_iteratorIcNS_11char_traitsIcEEEEE23__do_get_floating_pointIeEES4_S4_S4_RNS_8ios_baseERjRT_)
                  0000b880    000001aa                                   : locale.cpp.obj (.text:_ZNKSt3__27num_getIwNS_19istreambuf_iteratorIwNS_11char_traitsIwEEEEE23__do_get_floating_pointIdEES4_S4_S4_RNS_8ios_baseERjRT_)
                  0000ba2a    000001aa                                   : locale.cpp.obj (.text:_ZNKSt3__27num_getIwNS_19istreambuf_iteratorIwNS_11char_traitsIwEEEEE23__do_get_floating_pointIeEES4_S4_S4_RNS_8ios_baseERjRT_)
                  0000bbd4    000001a8                                   : locale.cpp.obj (.text:_ZNKSt3__27num_getIcNS_19istreambuf_iteratorIcNS_11char_traitsIcEEEEE23__do_get_floating_pointIfEES4_S4_S4_RNS_8ios_baseERjRT_)
                  0000bd7c    000001a6                                   : locale.cpp.obj (.text:_ZNKSt3__27num_getIwNS_19istreambuf_iteratorIwNS_11char_traitsIwEEEEE23__do_get_floating_pointIfEES4_S4_S4_RNS_8ios_baseERjRT_)
                  0000bf22    00000002                                   : vector.cpp.obj (.text:_ZNSt3__220__vector_base_commonILb1EEC2Ev)
                  0000bf24    0000019c     isotp.obj (.text:_Z18isotp_send_with_idP9IsoTpLinkjPKht)
                  0000c0c0    00000194     Can.obj (.text:_ZN3Can8commTaskEv)
                  0000c254    00000190     rtsv7M4_T_le_v4SPD16_eabi.lib : locale.cpp.obj (.text:_ZNKSt3__28time_getIwNS_19istreambuf_iteratorIwNS_11char_traitsIwEEEEE3getES4_S4_RNS_8ios_baseERjP2tmPKwSC_)
                  0000c3e4    00000184                                   : locale.cpp.obj (.text:_ZN32_INTERNAL_10_locale_cpp_a7183203St3__212utf8_to_ucs4EPKhS1_RS1_PjS3_RS3_mNS_12codecvt_modeE)
                  0000c568    00000184                                   : locale.cpp.obj (.text:_ZNKSt3__28time_getIcNS_19istreambuf_iteratorIcNS_11char_traitsIcEEEEE3getES4_S4_RNS_8ios_baseERjP2tmPKcSC_)
                  0000c6ec    00000180                                   : locale.cpp.obj (.text:_ZNKSt3__29money_getIcNS_19istreambuf_iteratorIcNS_11char_traitsIcEEEEE6do_getES4_S4_bRNS_8ios_baseERjRe)
                  0000c86c    00000004                                   : locale.cpp.obj (.text:_ZN32_INTERNAL_10_locale_cpp_a7183203St3__234_GLOBAL__N__10_locale_cpp_a718320321__throw_runtime_errorERKNS_12basic_stringIcNS_11char_traitsIcEENS_9allocatorIcEEEE)
                  0000c870    00000178     sysbios.aem4f : BIOS.obj (.text:ti_sysbios_family_arm_lm4_TimestampProvider_get64__E)
                  0000c9e8    00000174                   : BIOS.obj (.text:ti_sysbios_family_arm_m3_Hwi_excBusFault__I)
                  0000cb5c    00000166     rtsv7M4_T_le_v4SPD16_eabi.lib : locale.cpp.obj (.text:_ZN32_INTERNAL_10_locale_cpp_a7183203St3__213utf16_to_utf8EPKtS1_RS1_PhS3_RS3_mNS_12codecvt_modeE)
                  0000ccc2    00000006     driverlib.lib : sysctl.obj (.text:SysCtlDelay)
                  0000ccc8    00000164     sysbios.aem4f : BIOS.obj (.text:ti_sysbios_family_arm_m3_Hwi_excUsageFault__I)
                  0000ce2c    00000162     Can.obj (.text:_ZNSt3__25dequeI12CanMessage_tNS_9allocatorIS1_EEE19__add_back_capacityEv)
                  0000cf8e    00000162     NetReceive.obj (.text:_ZNSt3__25dequeI19messageIncomingInfoNS_9allocatorIS1_EEE19__add_back_capacityEv)
                  0000d0f0    0000015c     rtsv7M4_T_le_v4SPD16_eabi.lib : locale.cpp.obj (.text:_ZNKSt3__220__time_get_c_storageIcE7__weeksEv)
                  0000d24c    0000015c                                   : strtoull.c.obj (.text:strtoull)
                  0000d3a8    00000158     Codec.obj (.text:_ZN5Codec24argumentArray2OctetArrayER13ArgumentArrayRNSt3__212basic_stringIcNS2_11char_traitsIcEENS2_9allocatorIcEEEE)
                  0000d500    0000014c     rtsv7M4_T_le_v4SPD16_eabi.lib : locale.cpp.obj (.text:_ZNSt3__29__num_getIwE19__stage2_float_loopEwRbRcPcRS4_wwRKNS_12basic_stringIcNS_11char_traitsIcEENS_9allocatorIcEEEEPjRSE_RjPw)
                  0000d64c    0000014c                                   : vla_alloc.c.obj (.text:__vla_alloc)
                  0000d798    0000014a                                   : locale.cpp.obj (.text:_ZN32_INTERNAL_10_locale_cpp_a7183203St3__220utf8_to_utf16_lengthEPKhS1_jmNS_12codecvt_modeE)
                  0000d8e2    00000002                                   : string.cpp.obj (.text:_ZNSt3__222__compressed_pair_elemINS_12basic_stringIwNS_11char_traitsIwEENS_9allocatorIwEEE5__repELi0ELb0EE5__getEv)
                  0000d8e4    00000148                                   : locale.cpp.obj (.text:_ZNSt3__29__num_getIcE19__stage2_float_loopEcRbRcPcRS4_ccRKNS_12basic_stringIcNS_11char_traitsIcEENS_9allocatorIcEEEEPjRSE_RjS4_)
                  0000da2c    00000004                                   : locale.cpp.obj (.text:_ZNKSt3__210moneypunctIcLb0EE14do_frac_digitsEv)
                  0000da30    00000148     sysbios.aem4f : BIOS.obj (.text:ti_sysbios_family_arm_m3_Hwi_excMemFault__I)
                  0000db78    00000140     driverlib.lib : can.obj (.text:CANMessageSet)
                  0000dcb8    00000140     rtsv7M4_T_le_v4SPD16_eabi.lib : locale.cpp.obj (.text:_ZN32_INTERNAL_10_locale_cpp_a7183203St3__219utf8_to_ucs4_lengthEPKhS1_jmNS_12codecvt_modeE)
                  0000ddf8    00000140                                   : locale.cpp.obj (.text:_ZNKSt3__27num_putIcNS_19ostreambuf_iteratorIcNS_11char_traitsIcEEEEE6do_putES4_RNS_8ios_baseEcd)
                  0000df38    00000140                                   : locale.cpp.obj (.text:_ZNKSt3__27num_putIwNS_19ostreambuf_iteratorIwNS_11char_traitsIwEEEEE6do_putES4_RNS_8ios_baseEwe)
                  0000e078    0000013e     Can.obj (.text:_ZNSt3__227__tree_balance_after_insertIPNS_16__tree_node_baseIPvEEEEvT_S5_)
                  0000e1b6    00000002     rtsv7M4_T_le_v4SPD16_eabi.lib : string.cpp.obj (.text:_ZNSt3__222__compressed_pair_elemINS_9allocatorIcEELi1ELb1EEC1IS2_vEEOT_)
                  0000e1b8    0000013c                                   : locale.cpp.obj (.text:_ZNKSt3__27num_putIcNS_19ostreambuf_iteratorIcNS_11char_traitsIcEEEEE6do_putES4_RNS_8ios_baseEce)
                  0000e2f4    0000013c                                   : locale.cpp.obj (.text:_ZNKSt3__27num_putIwNS_19ostreambuf_iteratorIwNS_11char_traitsIwEEEEE6do_putES4_RNS_8ios_baseEwd)
                  0000e430    0000013c                                   : locale.cpp.obj (.text:_ZNKSt3__29money_getIwNS_19istreambuf_iteratorIwNS_11char_traitsIwEEEEE6do_getES4_S4_bRNS_8ios_baseERjRe)
                  0000e56c    0000013c                                   : _printfi.c.obj (.text:_pconv_e)
                  0000e6a8    0000013c     sysbios.aem4f : BIOS.obj (.text:ti_sysbios_heaps_HeapMem_Instance_init__E)
                  0000e7e4    00000136     rtsv7M4_T_le_v4SPD16_eabi.lib : fd_div_t2.asm.obj (.text)
                  0000e91a    00000130     driverlib.lib : gpio.obj (.text:GPIOPadConfigSet)
                  0000ea4a    00000002     rtsv7M4_T_le_v4SPD16_eabi.lib : string.cpp.obj (.text:_ZNSt3__222__compressed_pair_elemINS_9allocatorIwEELi1ELb1EEC1IS2_vEEOT_)
                  0000ea4c    00000130                                   : strtol.c.obj (.text:strtol)
                  0000eb7c    0000012e     Can.obj (.text:_ZNSt3__214__split_bufferIP12CanMessage_tNS_9allocatorIS2_EEE10push_frontEOS2_)
                  0000ecaa    0000012e     NetReceive.obj (.text:_ZNSt3__214__split_bufferIP19messageIncomingInfoNS_9allocatorIS2_EEE10push_frontEOS2_)
                  0000edd8    0000012c     rtsv7M4_T_le_v4SPD16_eabi.lib : locale.cpp.obj (.text:_ZNKSt3__27codecvtIwciE5do_inERiPKcS4_RS4_PwS6_RS6_)
                  0000ef04    00000126     ArgumentArray.obj (.text:_ZNSt3__214__split_bufferINS_5tupleIJNS_12basic_stringIcNS_11char_traitsIcEENS_9allocatorIcEEEE8ArgumentEEERNS5_IS9_EEE9push_backEOS9_)
                  0000f02a    00000126     Can.obj (.text:_ZNSt3__214__split_bufferIP12CanMessage_tNS_9allocatorIS2_EEE9push_backEOS2_)
                  0000f150    00000126     Can.obj (.text:_ZNSt3__214__split_bufferIP12CanMessage_tRNS_9allocatorIS2_EEE10push_frontERKS2_)
                  0000f276    00000126     Can.obj (.text:_ZNSt3__214__split_bufferIP12CanMessage_tRNS_9allocatorIS2_EEE9push_backEOS2_)
                  0000f39c    00000126     NetReceive.obj (.text:_ZNSt3__214__split_bufferIP19messageIncomingInfoNS_9allocatorIS2_EEE9push_backEOS2_)
                  0000f4c2    00000126     NetReceive.obj (.text:_ZNSt3__214__split_bufferIP19messageIncomingInfoRNS_9allocatorIS2_EEE10push_frontERKS2_)
                  0000f5e8    00000126     NetReceive.obj (.text:_ZNSt3__214__split_bufferIP19messageIncomingInfoRNS_9allocatorIS2_EEE9push_backEOS2_)
                  0000f70e    00000002     rtsv7M4_T_le_v4SPD16_eabi.lib : stdlib_typeinfo.cpp.obj (.text:_ZNSt9type_infoD1Ev)
                  0000f710    00000124                                   : _printfi.c.obj (.text:fcvt)
                  0000f834    0000011e     Can.obj (.text:_ZNSt3__214__split_bufferIP12CanMessage_tNS_9allocatorIS2_EEE9push_backERKS2_)
                  0000f952    0000011e     NetReceive.obj (.text:_ZNSt3__214__split_bufferIP19messageIncomingInfoNS_9allocatorIS2_EEE9push_backERKS2_)
                  0000fa70    0000011d     isotp.obj (.text:_ZN30_INTERNAL_9_isotp_cpp_dbeeafe925isotp_receive_first_frameEP9IsoTpLinkP15IsoTpCanMessageh)
                  0000fb8d    00000001     --HOLE-- [fill = 0]
                  0000fb8e    00000002     rtsv7M4_T_le_v4SPD16_eabi.lib : _lock.c.obj (.text:_nop)
                  0000fb90    0000011c                                   : locale.cpp.obj (.text:_ZNSt3__216__pad_and_outputIwNS_11char_traitsIwEEEENS_19ostreambuf_iteratorIT_T0_EES6_PKS4_S8_S8_RNS_8ios_baseES4_)
                  0000fcac    00000004                                   : locale.cpp.obj (.text:_ZNKSt3__210moneypunctIcLb0EE16do_decimal_pointEv)
                  0000fcb0    0000011c     sysbios.aem4f : BIOS.obj (.text:ti_sysbios_knl_Clock_Instance_init__E)
                  0000fdcc    00000118     rtsv7M4_T_le_v4SPD16_eabi.lib : locale.cpp.obj (.text:_ZNKSt3__27codecvtIwciE6do_outERiPKwS4_RS4_PcS6_RS6_)
                  0000fee4    00000118     ti.targets.arm.rtsarm.aem4f : Error.oem4f (.text:xdc_runtime_Error_policyDefault__E)
                  0000fffc    00000116     Handler.obj (.text:_ZNSt3__212basic_stringIcNS_11char_traitsIcEENS_9allocatorIcEEE23__append_forward_unsafeINS_11__wrap_iterIPhEEEERS5_T_SB_)
                  00010112    00000002     rtsv7M4_T_le_v4SPD16_eabi.lib : xlocale.c.obj (.text:freelocale)
                  00010114    00000114                                   : string.cpp.obj (.text:_ZNSt3__212basic_stringIwNS_11char_traitsIwEENS_9allocatorIwEEE7reserveEj)
                  00010228    00000114                                   : fputs.c.obj (.text:fputs)
                  0001033c    00000110     Codec.obj (.text:_ZN5Codec14encodeResponseEbR13ArgumentArrayRNSt3__212basic_stringIcNS2_11char_traitsIcEENS2_9allocatorIcEEEE)
                  0001044c    00000110     Codec.obj (.text:_ZNSt3__215basic_stringbufIcNS_11char_traitsIcEENS_9allocatorIcEEE8overflowEi)
                  0001055c    00000110     rtsv7M4_T_le_v4SPD16_eabi.lib : s_scalbn.c.obj (.text:scalbn)
                  0001066c    00000110                                   : strtoul.c.obj (.text:strtoul)
                  0001077c    0000010e     driverlib.lib : can.obj (.text:CANMessageGet)
                  0001088a    00000002     rtsv7M4_T_le_v4SPD16_eabi.lib : div0.asm.obj (.text)
                  0001088c    0000010c     driverlib.lib : sysctl.obj (.text:SysCtlClockGet)
                  00010998    0000010c     isotp.obj (.text:_ZN30_INTERNAL_9_isotp_cpp_dbeeafe928isotp_send_consecutive_frameEP9IsoTpLink)
                  00010aa4    0000010c     rtsv7M4_T_le_v4SPD16_eabi.lib : string.cpp.obj (.text:_ZNSt3__212basic_stringIwNS_11char_traitsIwEENS_9allocatorIwEEE21__grow_by_and_replaceEjjjjjjPKw)
                  00010bb0    00000108                                   : locale.cpp.obj (.text:_ZN32_INTERNAL_10_locale_cpp_a7183203St3__212ucs4_to_utf8EPKjS1_RS1_PhS3_RS3_mNS_12codecvt_modeE)
                  00010cb8    00000108     sysbios.aem4f : BIOS.obj (.text:ti_sysbios_family_arm_lm4_Timer_start__E)
                  00010dc0    00000100     Boot.aem4f : Boot_sysctl.oem4f (.text:ti_catalog_arm_cortexm4_tiva_ce_Boot_sysCtlClockSetI__I)
                  00010ec0    00000100     ti.targets.arm.rtsarm.aem4f : Core-mem.oem4f (.text:xdc_runtime_Core_createObject__I)
                  00010fc0    000000fe     empty_pem4f.oem4f (.text:ti_uia_loggers_LoggerStopMode_writeFinish)
                  000110be    000000fc     rtsv7M4_T_le_v4SPD16_eabi.lib : fd_mul_t2.asm.obj (.text)
                  000111ba    00000002     empty_pem4f.oem4f (.text:ti_sysbios_BIOS_nullFunc__I)
                  000111bc    000000f8     ti.targets.arm.rtsarm.aem4f : Startup.oem4f (.text:xdc_runtime_Startup_startMods__I)
                  000112b4    000000f4     Can.obj (.text:_ZN3Can8writeRspEt12TimeDurationNSt3__212basic_stringIcNS1_11char_traitsIcEENS1_9allocatorIcEEEEb)
                  000113a8    000000f4     sysbios.aem4f : m3_Hwi_asm.obj (.text:ti_sysbios_family_arm_m3_Hwi_dispatch__I)
                  0001149c    000000f2     rtsv7M4_T_le_v4SPD16_eabi.lib : string.cpp.obj (.text:_ZNSt3__212basic_stringIcNS_11char_traitsIcEENS_9allocatorIcEEE7reserveEj)
                  0001158e    000000f2     ArgumentArray.obj (.text:_ZNSt3__26vectorINS_5tupleIJNS_12basic_stringIcNS_11char_traitsIcEENS_9allocatorIcEEEE8ArgumentEEENS5_IS9_EEE6insertENS_11__wrap_iterIPKS9_EEOS9_)
                  00011680    000000f0     driverlib.lib : sysctl.obj (.text:SysCtlClockSet)
                  00011770    000000f0     rtsv7M4_T_le_v4SPD16_eabi.lib : string.cpp.obj (.text:_ZNSt3__212basic_stringIcNS_11char_traitsIcEENS_9allocatorIcEEE21__grow_by_and_replaceEjjjjjjPKc)
                  00011860    000000f0     Codec.obj (.text:_ZNSt3__215basic_stringbufIcNS_11char_traitsIcEENS_9allocatorIcEEE3strERKNS_12basic_stringIcS2_S4_EE)
                  00011950    000000f0     rtsv7M4_T_le_v4SPD16_eabi.lib : locale.cpp.obj (.text:_ZNSt3__216__pad_and_outputIcNS_11char_traitsIcEEEENS_19ostreambuf_iteratorIT_T0_EES6_PKS4_S8_S8_RNS_8ios_baseES4_)
                  00011a40    000000ee                                   : locale.cpp.obj (.text:_ZNSt3__220__get_up_to_n_digitsIwNS_19istreambuf_iteratorIwNS_11char_traitsIwEEEEEEiRT0_S5_RjRKNS_5ctypeIT_EEi)
                  00011b2e    00000002     ti.uia.loggers.aem4f : LoggerStopMode.oem4f (.text:ti_uia_loggers_LoggerStopMode_setPriority__E)
                  00011b30    000000ec     Can.obj (.text:_ZN3Can4initEv)
                  00011c1c    000000ec     rtsv7M4_T_le_v4SPD16_eabi.lib : locale.cpp.obj (.text:_ZNSt3__29__num_getIcE17__stage2_int_loopEciPcRS2_RjcRKNS_12basic_stringIcNS_11char_traitsIcEENS_9allocatorIcEEEEPjRSD_PKc)
                  00011d08    000000ec                                   : locale.cpp.obj (.text:_ZNSt3__29__num_getIwE17__stage2_int_loopEwiPcRS2_RjwRKNS_12basic_stringIcNS_11char_traitsIcEENS_9allocatorIcEEEEPjRSD_PKw)
                  00011df4    00000004                                   : locale.cpp.obj (.text:_ZNKSt3__210moneypunctIcLb0EE16do_thousands_sepEv)
                  00011df8    000000ec     sysbios.aem4f : BIOS.obj (.text:ti_sysbios_knl_Semaphore_post__E)
                  00011ee4    000000e8     rtsv7M4_T_le_v4SPD16_eabi.lib : locale.cpp.obj (.text:_ZNKSt3__220__time_get_c_storageIwE3__cEv)
                  00011fcc    000000e4                                   : locale.cpp.obj (.text:_ZNSt3__220__get_up_to_n_digitsIcNS_19istreambuf_iteratorIcNS_11char_traitsIcEEEEEEiRT0_S5_RjRKNS_5ctypeIT_EEi)
                  000120b0    000000e0                                   : locale.cpp.obj (.text:_ZNSt3__26vectorIPNS_6locale5facetENS_15__sso_allocatorIS3_Lj28EEEE8__appendEj)
                  00012190    000000dc     Argument.obj (.text:_ZN8Argument5writeERNSt3__218basic_stringstreamIcNS0_11char_traitsIcEENS0_9allocatorIcEEEE)
                  0001226c    000000dc     rtsv7M4_T_le_v4SPD16_eabi.lib : locale.cpp.obj (.text:_ZNKSt3__27num_getIcNS_19istreambuf_iteratorIcNS_11char_traitsIcEEEEE6do_getES4_S4_RNS_8ios_baseERjRb)
                  00012348    000000dc                                   : locale.cpp.obj (.text:_ZNKSt3__27num_getIwNS_19istreambuf_iteratorIwNS_11char_traitsIwEEEEE6do_getES4_S4_RNS_8ios_baseERjRb)
                  00012424    000000dc                                   : setvbuf.c.obj (.text:setvbuf)
                  00012500    000000da                                   : string.cpp.obj (.text:_ZNSt3__212basic_stringIcNS_11char_traitsIcEENS_9allocatorIcEEE6insertEjPKcj)
                  000125da    00000002     empty_pem4f.oem4f (.text:xdc_runtime_Startup_reset__I)
                  000125dc    000000d8     rtsv7M4_T_le_v4SPD16_eabi.lib : string.cpp.obj (.text:_ZNSt3__212basic_stringIwNS_11char_traitsIwEENS_9allocatorIwEEE9__grow_byEjjjjjj)
                  000126b4    00000004                                   : locale.cpp.obj (.text:_ZNKSt3__210moneypunctIcLb1EE14do_frac_digitsEv)
                  000126b8    000000d8     sysbios.aem4f : BIOS.obj (.text:ti_sysbios_family_arm_lm4_TimestampProvider_get32__E)
                  00012790    000000d6     isotp.obj (.text:_Z10isotp_pollP9IsoTpLink)
                  00012866    00000002     --HOLE-- [fill = 0]
                  00012868    000000d4     rtsv7M4_T_le_v4SPD16_eabi.lib : locale.cpp.obj (.text:_ZNKSt3__220__time_get_c_storageIwE3__rEv)
                  0001293c    000000d0                                   : locale.cpp.obj (.text:_ZNKSt3__220__time_get_c_storageIwE3__XEv)
                  00012a0c    000000d0                                   : locale.cpp.obj (.text:_ZNKSt3__220__time_get_c_storageIwE3__xEv)
                  00012adc    000000d0                                   : s_scalbnf.c.obj (.text:scalbnf)
                  00012bac    000000cc                                   : locale.cpp.obj (.text:_ZNKSt3__27num_putIcNS_19ostreambuf_iteratorIcNS_11char_traitsIcEEEEE6do_putES4_RNS_8ios_baseEcx)
                  00012c78    000000cc                                   : locale.cpp.obj (.text:_ZNKSt3__27num_putIwNS_19ostreambuf_iteratorIwNS_11char_traitsIwEEEEE6do_putES4_RNS_8ios_baseEwx)
                  00012d44    000000cc     ti.targets.arm.rtsarm.aem4f : Core-smem.oem4f (.text:xdc_runtime_Core_constructObject__I)
                  00012e10    000000cb     isotp.obj (.text:_ZN30_INTERNAL_9_isotp_cpp_dbeeafe922isotp_send_first_frameEP9IsoTpLinkj)
                  00012edb    00000001     --HOLE-- [fill = 0]
                  00012edc    000000c8     main.obj (.text:main)
                  00012fa4    000000c4     isotp.obj (.text:_ZN30_INTERNAL_9_isotp_cpp_dbeeafe923isotp_send_single_frameEP9IsoTpLinkj)
                  00013068    000000c4     rtsv7M4_T_le_v4SPD16_eabi.lib : locale.cpp.obj (.text:_ZNKSt3__27num_putIcNS_19ostreambuf_iteratorIcNS_11char_traitsIcEEEEE6do_putES4_RNS_8ios_baseEcy)
                  0001312c    000000c4                                   : locale.cpp.obj (.text:_ZNKSt3__27num_putIwNS_19ostreambuf_iteratorIwNS_11char_traitsIwEEEEE6do_putES4_RNS_8ios_baseEwy)
                  000131f0    000000c0                                   : locale.cpp.obj (.text:_ZNKSt3__27num_putIcNS_19ostreambuf_iteratorIcNS_11char_traitsIcEEEEE6do_putES4_RNS_8ios_baseEcl)
                  000132b0    000000c0                                   : locale.cpp.obj (.text:_ZNKSt3__27num_putIcNS_19ostreambuf_iteratorIcNS_11char_traitsIcEEEEE6do_putES4_RNS_8ios_baseEcm)
                  00013370    000000c0                                   : locale.cpp.obj (.text:_ZNKSt3__27num_putIwNS_19ostreambuf_iteratorIwNS_11char_traitsIwEEEEE6do_putES4_RNS_8ios_baseEwl)
                  00013430    000000c0                                   : locale.cpp.obj (.text:_ZNKSt3__27num_putIwNS_19ostreambuf_iteratorIwNS_11char_traitsIwEEEEE6do_putES4_RNS_8ios_baseEwm)
                  000134f0    000000c0                                   : string.cpp.obj (.text:_ZNSt3__212basic_stringIcNS_11char_traitsIcEENS_9allocatorIcEEE9__grow_byEjjjjjj)
                  000135b0    000000bc     Argument.obj (.text:_ZN8ArgumentC1ENS_8TypeCodeEPv)
                  0001366c    00000004     rtsv7M4_T_le_v4SPD16_eabi.lib : locale.cpp.obj (.text:_ZNKSt3__210moneypunctIcLb1EE16do_decimal_pointEv)
                  00013670    000000bc     sysbios.aem4f : BIOS.obj (.text:ti_sysbios_family_arm_m3_Hwi_excDebugMon__I)
                  0001372c    00000004     rtsv7M4_T_le_v4SPD16_eabi.lib : locale.cpp.obj (.text:_ZNKSt3__210moneypunctIcLb1EE16do_thousands_sepEv)
                  00013730    000000bc     sysbios.aem4f : BIOS.obj (.text:ti_sysbios_family_arm_m3_Hwi_excHardFault__I)
                  000137ec    000000b8     Codec.obj (.text:_ZNSt3__215basic_stringbufIcNS_11char_traitsIcEENS_9allocatorIcEEE9pbackfailEi)
                  000138a4    000000b5     isotp.obj (.text:_ZN30_INTERNAL_9_isotp_cpp_dbeeafe931isotp_receive_consecutive_frameEP9IsoTpLinkP15IsoTpCanMessageh)
                  00013959    00000001     --HOLE-- [fill = 0]
                  0001395a    00000006     rtsv7M4_T_le_v4SPD16_eabi.lib : locale.cpp.obj (.text:_ZNKSt3__210moneypunctIwLb0EE16do_decimal_pointEv)
                  00013960    000000b4     sysbios.aem4f : BIOS.obj (.text:ti_sysbios_gates_GateMutex_enter__E)
                  00013a14    00000004     rtsv7M4_T_le_v4SPD16_eabi.lib : locale.cpp.obj (.text:_ZNKSt3__210moneypunctIwLb0EE14do_frac_digitsEv)
                  00013a18    000000b4     sysbios.aem4f : BIOS.obj (.text:ti_sysbios_knl_Task_checkStacks__E)
                  00013acc    000000b4     empty_pem4f.oem4f (.text:ti_uia_loggers_LoggerStopMode_write8__E)
                  00013b80    000000b2     Handler.obj (.text:_ZNSt3__212basic_stringIcNS_11char_traitsIcEENS_9allocatorIcEEE6__initINS_11__wrap_iterIPhEEEENS_9enable_ifIXsr3std3__221__is_forward_iteratorIT_EE5valueEvE4typeESB_SB_)
                  00013c32    00000002     --HOLE-- [fill = 0]
                  00013c34    000000b1     rtsv7M4_T_le_v4SPD16_eabi.lib : _printfi.c.obj (.text:_ltostr)
                  00013ce5    00000003     --HOLE-- [fill = 0]
                  00013ce8    000000b0     sysbios.aem4f : BIOS.obj (.text:ti_sysbios_utils_Load_idleFxn__E)
                  00013d98    000000ac     Argument.obj (.text:_ZN8Argument5printEv)
                  00013e44    00000004     rtsv7M4_T_le_v4SPD16_eabi.lib : locale.cpp.obj (.text:_ZNKSt3__210moneypunctIwLb1EE14do_frac_digitsEv)
                  00013e48    000000ac     sysbios.aem4f : BIOS.obj (.text:ti_sysbios_family_arm_lm4_Timer_enableTiva__I)
                  00013ef4    000000ab     Argument.obj (.text:_ZN8ArgumentaSERKS_)
                  00013f9f    00000001     --HOLE-- [fill = 0]
                  00013fa0    000000a8     Codec.obj (.text:_ZNSt3__212basic_stringIcNS_11char_traitsIcEENS_9allocatorIcEEE6__initIPcEENS_9enable_ifIXsr3std3__221__is_forward_iteratorIT_EE5valueEvE4typeES9_S9_)
                  00014048    000000a8     rtsv7M4_T_le_v4SPD16_eabi.lib : ios.cpp.obj (.text:_ZNSt3__214basic_iostreamIcNS_11char_traitsIcEEEC2EPNS_15basic_streambufIcS2_EE)
                  000140f0    000000a8                                   : locale.cpp.obj (.text:_ZNSt3__219__double_or_nothingIwEEvRNS_10unique_ptrIT_PFvPvEEERPS2_S9_)
                  00014198    000000a8     Can.obj (.text:_ZNSt3__26__treeINS_12__value_typeIi12CanMessage_tEENS_19__map_value_compareIiS3_NS_4lessIiEELb1EEENS_9allocatorIS3_EEE12__find_equalIiEERPNS_16__tree_node_baseIPvEERPNS_15__tree_end_nodeISF_EERKT_)
                  00014240    000000a4     rtsv7M4_T_le_v4SPD16_eabi.lib : string.cpp.obj (.text:_ZNSt3__212basic_stringIcNS_11char_traitsIcEENS_9allocatorIcEEE6appendEPKcj)
                  000142e4    000000a4                                   : string.cpp.obj (.text:_ZNSt3__212basic_stringIwNS_11char_traitsIwEENS_9allocatorIwEEE6appendEPKwj)
                  00014388    000000a0                                   : string.cpp.obj (.text:_ZNSt3__212basic_stringIcNS_11char_traitsIcEENS_9allocatorIcEEE9push_backEc)
                  00014428    000000a0     auto_init.aem4f : auto_init.oem4f (.text)
                  000144c8    000000a0     empty_pem4f.oem4f (.text:ti_sysbios_BIOS_rtsUnlock__I)
                  00014568    000000a0     ti.targets.arm.rtsarm.aem4f : Text.oem4f (.text:xdc_runtime_Text_putMod__E)
                  00014608    0000009e     rtsv7M4_T_le_v4SPD16_eabi.lib : string.cpp.obj (.text:_ZNSt3__212basic_stringIwNS_11char_traitsIwEENS_9allocatorIwEEE9push_backEw)
                  000146a6    00000002     --HOLE-- [fill = 0]
                  000146a8    0000009c                                   : locale.cpp.obj (.text:_ZNKSt3__27num_putIwNS_19ostreambuf_iteratorIwNS_11char_traitsIwEEEEE6do_putES4_RNS_8ios_baseEwPKv)
                  00014744    0000009c                                   : locale.cpp.obj (.text:_ZNKSt3__27num_putIwNS_19ostreambuf_iteratorIwNS_11char_traitsIwEEEEE6do_putES4_RNS_8ios_baseEwb)
                  000147e0    0000009c                                   : string.cpp.obj (.text:_ZNSt3__212basic_stringIcNS_11char_traitsIcEENS_9allocatorIcEEE6appendEjc)
                  0001487c    0000009c                                   : memcpy_t2.asm.obj (.text)
                  00014918    0000009c     sysbios.aem4f : BIOS.obj (.text:ti_sysbios_knl_Semaphore_Instance_init__E)
                  000149b4    0000009a     ti.targets.arm.rtsarm.aem4f : Text.oem4f (.text:xdc_runtime_Text_putSite__E)
                  00014a4e    00000002     --HOLE-- [fill = 0]
                  00014a50    00000098     Handler.obj (.text:_ZN7Handler13handleCommandEhh13ArgumentArrayRbRS0_)
                  00014ae8    00000098     rtsv7M4_T_le_v4SPD16_eabi.lib : locale.cpp.obj (.text:_ZNKSt3__210__time_put8__do_putEPwRS1_PK2tmcc)
                  00014b80    00000098                                   : locale.cpp.obj (.text:_ZNKSt3__27num_putIcNS_19ostreambuf_iteratorIcNS_11char_traitsIcEEEEE6do_putES4_RNS_8ios_baseEcPKv)
                  00014c18    00000098                                   : locale.cpp.obj (.text:_ZNKSt3__27num_putIcNS_19ostreambuf_iteratorIcNS_11char_traitsIcEEEEE6do_putES4_RNS_8ios_baseEcb)
                  00014cb0    00000098     Can.obj (.text:_ZNSt3__212__deque_baseI12CanMessage_tNS_9allocatorIS1_EEE5clearEv)
                  00014d48    00000098     NetReceive.obj (.text:_ZNSt3__212__deque_baseI19messageIncomingInfoNS_9allocatorIS1_EEE5clearEv)
                  00014de0    00000098     rtsv7M4_T_le_v4SPD16_eabi.lib : string.cpp.obj (.text:_ZNSt3__212basic_stringIwNS_11char_traitsIwEENS_9allocatorIwEEE6assignEPKwj)
                  00014e78    00000098     Boot.aem4f : Boot.oem4f (.text:ti_catalog_arm_cortexm4_tiva_ce_Boot_sysCtlClockSet__E)
                  00014f10    00000096     rtsv7M4_T_le_v4SPD16_eabi.lib : string.cpp.obj (.text:_ZNSt3__212basic_stringIcNS_11char_traitsIcEENS_9allocatorIcEEE6assignEPKcj)
                  00014fa6    00000096                                   : locale.cpp.obj (.text:_ZNSt3__225__num_get_signed_integralIlEET_PKcS3_Rji)
                  0001503c    00000096                                   : ull_div_t2.asm.obj (.text)
                  000150d2    00000002     --HOLE-- [fill = 0]
                  000150d4    00000094                                   : locale.cpp.obj (.text:_ZNKSt3__220__time_get_c_storageIwE7__am_pmEv)
                  00015168    00000094                                   : string.cpp.obj (.text:_ZNSt3__212basic_stringIwNS_11char_traitsIwEENS_9allocatorIwEEE6__initEPKwj)
                  000151fc    00000094                                   : locale.cpp.obj (.text:_ZNSt3__219__double_or_nothingIcEEvRNS_10unique_ptrIT_PFvPvEEERPS2_S9_)
                  00015290    00000094                                   : locale.cpp.obj (.text:_ZNSt3__219__double_or_nothingIjEEvRNS_10unique_ptrIT_PFvPvEEERPS2_S9_)
                  00015324    00000004                                   : ios.cpp.obj (.text:_ZNKSt3__215basic_streambufIcNS_11char_traitsIcEEE4gptrEv)
                  00015328    00000094     sysbios.aem4f : BIOS.obj (.text:ti_sysbios_family_arm_m3_Hwi_initNVIC__E)
                  000153bc    00000004     rtsv7M4_T_le_v4SPD16_eabi.lib : ios.cpp.obj (.text:_ZNKSt3__215basic_streambufIcNS_11char_traitsIcEEE4pptrEv)
                  000153c0    00000094     sysbios.aem4f : BIOS.obj (.text:ti_sysbios_knl_Task_postInit__I)
                  00015454    00000004     rtsv7M4_T_le_v4SPD16_eabi.lib : ios.cpp.obj (.text:_ZNKSt3__215basic_streambufIcNS_11char_traitsIcEEE5ebackEv)
                  00015458    00000094     sysbios.aem4f : BIOS.obj (.text:ti_sysbios_utils_Load_updateLoads__E)
                  000154ec    00000092     Can.obj (.text:_ZNSt3__26__treeINS_12__value_typeIi12CanMessage_tEENS_19__map_value_compareIiS3_NS_4lessIiEELb1EEENS_9allocatorIS3_EEE25__emplace_unique_key_argsIiJRKNS_21piecewise_construct_tENS_5tupleIJOiEEENSF_IJEEEEEENS_4pairINS_15__tree_iteratorIS3_PNS_11__tree_nodeIS3_PvEEiEEbEERKT_DpOT0_)
                  0001557e    00000002     --HOLE-- [fill = 0]
                  00015580    00000090     rtsv7M4_T_le_v4SPD16_eabi.lib : locale.cpp.obj (.text:_ZNSt3__225__num_get_signed_integralIxEET_PKcS3_Rji)
                  00015610    00000090     ti.uia.loggers.aem4f : LoggerStopMode.oem4f (.text:ti_uia_loggers_LoggerStopMode_initQueueDescriptor__E)
                  000156a0    0000008c     Codec.obj (.text:_ZNKSt3__215basic_stringbufIcNS_11char_traitsIcEENS_9allocatorIcEEE3strEv)
                  0001572c    0000008c     rtsv7M4_T_le_v4SPD16_eabi.lib : locale.cpp.obj (.text:_ZNKSt3__220__time_get_c_storageIcE7__am_pmEv)
                  000157b8    0000008c                                   : locale.cpp.obj (.text:_ZNKSt3__28numpunctIwE11do_truenameEv)
                  00015844    0000008c                                   : locale.cpp.obj (.text:_ZNKSt3__28numpunctIwE12do_falsenameEv)
                  000158d0    0000008c                                   : fputc.c.obj (.text:fputc)
                  0001595c    0000008c     sysbios.aem4f : m3_TaskSupport_asm.obj (.text:ti_sysbios_family_arm_m3_TaskSupport_buildTaskStack)
                  000159e8    0000008c     empty_pem4f.oem4f (.text:ti_uia_loggers_LoggerStopMode_write4__E)
                  00015a74    0000008a     ArgumentArray.obj (.text:_ZNSt3__26vectorINS_5tupleIJNS_12basic_stringIcNS_11char_traitsIcEENS_9allocatorIcEEEE8ArgumentEEENS5_IS9_EEE26__swap_out_circular_bufferERNS_14__split_bufferIS9_RSA_EEPS9_)
                  00015afe    00000088     Codec.obj (.text:_ZN5Codec13decodeCommandENSt3__212basic_stringIcNS0_11char_traitsIcEENS0_9allocatorIcEEEERtRhS8_R13ArgumentArray)
                  00015b86    00000086     rtsv7M4_T_le_v4SPD16_eabi.lib : fd_cmp_t2.asm.obj (.text:__aeabi_cdcmple)
                  00015c0c    00000086                                   : fd_cmp_t2.asm.obj (.text:__aeabi_cdrcmple)
                  00015c92    00000002     --HOLE-- [fill = 0]
                  00015c94    00000084                                   : locale.cpp.obj (.text:_ZNKSt3__220__time_get_c_storageIcE3__cEv)
                  00015d18    00000084                                   : locale.cpp.obj (.text:_ZNKSt3__27collateIwE12do_transformEPKwS3_)
                  00015d9c    00000004                                   : ios.cpp.obj (.text:_ZNKSt3__215basic_streambufIcNS_11char_traitsIcEEE5egptrEv)
                  00015da0    00000084     sysbios.aem4f : BIOS.obj (.text:ti_sysbios_family_arm_m3_Hwi_postInit__I)
                  00015e24    00000082     Can.obj (.text:_ZNSt3__26__treeINS_12__value_typeIi12CanMessage_tEENS_19__map_value_compareIiS3_NS_4lessIiEELb1EEENS_9allocatorIS3_EEE16__construct_nodeIJRKNS_21piecewise_construct_tENS_5tupleIJOiEEENSF_IJEEEEEENS_10unique_ptrINS_11__tree_nodeIS3_PvEENS_22__tree_node_destructorINS8_ISM_EEEEEEDpOT_)
                  00015ea6    00000080     rtsv7M4_T_le_v4SPD16_eabi.lib : ios.cpp.obj (.text:_ZNSt3__213basic_ostreamIcNS_11char_traitsIcEEE6sentryD1Ev)
                  00015f26    00000080                                   : locale.cpp.obj (.text:_ZNSt3__214__num_put_base14__format_floatEPcPKcj)
                  00015fa6    00000002     --HOLE-- [fill = 0]
                  00015fa8    00000080                                   : locale.cpp.obj (.text:_ZNSt3__26locale5__impD1Ev)
                  00016028    0000007e     Can.obj (.text:_ZNSt3__26__treeINS_12__value_typeIi12CanMessage_tEENS_19__map_value_compareIiS3_NS_4lessIiEELb1EEENS_9allocatorIS3_EEE25__emplace_unique_key_argsIiJNS_4pairIiS2_EEEEENSC_INS_15__tree_iteratorIS3_PNS_11__tree_nodeIS3_PvEEiEEbEERKT_DpOT0_)
                  000160a6    00000002     --HOLE-- [fill = 0]
                  000160a8    0000007d     Argument.obj (.text:_ZN8ArgumentC1ERKS_)
                  00016125    00000001     --HOLE-- [fill = 0]
                  00016126    0000007c     rtsv7M4_T_le_v4SPD16_eabi.lib : locale.cpp.obj (.text:_ZNKSt3__28time_getIcNS_19istreambuf_iteratorIcNS_11char_traitsIcEEEEE11__get_am_pmERiRS4_S4_RjRKNS_5ctypeIcEE)
                  000161a2    0000007c                                   : locale.cpp.obj (.text:_ZNKSt3__28time_getIwNS_19istreambuf_iteratorIwNS_11char_traitsIwEEEEE11__get_am_pmERiRS4_S4_RjRKNS_5ctypeIwEE)
                  0001621e    0000007c     Can.obj (.text:_ZNSt3__26__treeINS_12__value_typeIi12CanMessage_tEENS_19__map_value_compareIiS3_NS_4lessIiEELb1EEENS_9allocatorIS3_EEE5eraseENS_21__tree_const_iteratorIS3_PNS_11__tree_nodeIS3_PvEEiEE)
                  0001629a    0000007c     ArgumentArray.obj (.text:_ZNSt3__26vectorINS_5tupleIJNS_12basic_stringIcNS_11char_traitsIcEENS_9allocatorIcEEEE8ArgumentEEENS5_IS9_EEE12__move_rangeEPS9_SC_SC_)
                  00016316    00000002     --HOLE-- [fill = 0]
                  00016318    0000007c     rtsv7M4_T_le_v4SPD16_eabi.lib : fflush.c.obj (.text:fflush)
                  00016394    0000007a                                   : string.cpp.obj (.text:_ZNSt3__212basic_stringIcNS_11char_traitsIcEENS_9allocatorIcEEEaSEOS5_)
                  0001640e    0000007a                                   : locale.cpp.obj (.text:_ZNSt3__227__num_get_unsigned_integralIjEET_PKcS3_Rji)
                  00016488    0000007a                                   : locale.cpp.obj (.text:_ZNSt3__227__num_get_unsigned_integralImEET_PKcS3_Rji)
                  00016502    0000007a                                   : memset_t2.asm.obj (.text)
                  0001657c    00000078                                   : vla_alloc.c.obj (.text:_ZN33_INTERNAL_11_vla_alloc_c_be8bd49b21free_dead_allocationsEPv)
                  000165f4    00000078                                   : locale.cpp.obj (.text:_ZNKSt3__220__time_get_c_storageIcE3__rEv)
                  0001666c    00000078                                   : locale.cpp.obj (.text:_ZNSt3__215__num_get_floatIfEET_PKcS3_Rj)
                  000166e4    00000078                                   : locale.cpp.obj (.text:_ZNSt3__227__num_get_unsigned_integralItEET_PKcS3_Rji)
                  0001675c    00000078     empty_pem4f.oem4f (.text:ti_uia_loggers_LoggerStopMode_write2__E)
                  000167d4    00000077     isotp.obj (.text:_ZN30_INTERNAL_9_isotp_cpp_dbeeafe926isotp_receive_single_frameEP9IsoTpLinkP15IsoTpCanMessageh)
                  0001684b    00000001     --HOLE-- [fill = 0]
                  0001684c    00000076     rtsv7M4_T_le_v4SPD16_eabi.lib : vec_newdel.c.obj (.text:_ZN34_INTERNAL_12_vec_newdel_c_8a08d4a517array_new_generalEPvijjS0_PFYS0_S0_ES2_PFYS0_jEPFYvS0_Eii)
                  000168c2    00000076                                   : string.cpp.obj (.text:_ZNSt3__212basic_stringIcNS_11char_traitsIcEENS_9allocatorIcEEE6resizeEjc)
                  00016938    00000074     Can.obj (.text:_Z13CANIntHandlerv)
                  000169ac    00000074     rtsv7M4_T_le_v4SPD16_eabi.lib : string.cpp.obj (.text:_ZNSt3__212basic_stringIcNS_11char_traitsIcEENS_9allocatorIcEEE6__initEPKcj)
                  00016a20    00000074                                   : locale.cpp.obj (.text:_ZNSt3__215__num_get_floatIdEET_PKcS3_Rj)
                  00016a94    00000074                                   : locale.cpp.obj (.text:_ZNSt3__215__num_get_floatIeEET_PKcS3_Rj)
                  00016b08    00000074                                   : ios.cpp.obj (.text:_ZNSt3__215basic_streambufIcNS_11char_traitsIcEEE6xsgetnEPci)
                  00016b7c    00000074     Codec.obj (.text:_ZNSt3__215basic_stringbufIcNS_11char_traitsIcEENS_9allocatorIcEEE9underflowEv)
                  00016bf0    00000074     rtsv7M4_T_le_v4SPD16_eabi.lib : locale.cpp.obj (.text:_ZNSt3__216__check_groupingERKNS_12basic_stringIcNS_11char_traitsIcEENS_9allocatorIcEEEEPjS8_Rj)
                  00016c64    00000074     Codec.obj (.text:_ZNSt3__218basic_stringstreamIcNS_11char_traitsIcEENS_9allocatorIcEEEC2Ej)
                  00016cd8    00000074     rtsv7M4_T_le_v4SPD16_eabi.lib : locale.cpp.obj (.text:_ZNSt3__227__num_get_unsigned_integralIyEET_PKcS3_Rji)
                  00016d4c    00000074                                   : fclose.c.obj (.text:__TI_closefile)
                  00016dc0    00000074     sysbios.aem4f : BIOS.obj (.text:ti_sysbios_knl_Clock_start__E)
                  00016e34    00000074     ti.uia.runtime.aem4f : QueueDescriptor.oem4f (.text:ti_uia_runtime_QueueDescriptor_addToList__E)
                  00016ea8    00000072     rtsv7M4_T_le_v4SPD16_eabi.lib : vec_newdel.c.obj (.text:_ZN34_INTERNAL_12_vec_newdel_c_8a08d4a520array_delete_generalEPvijjPFYS0_S0_EiPFYvS0_Eii)
                  00016f1a    00000072                                   : none_mb.c.obj (.text:wcsnrtombs)
                  00016f8c    00000070                                   : vla_alloc.c.obj (.text:__vla_dealloc)
                  00016ffc    00000004                                   : ios.cpp.obj (.text:_ZNKSt3__215basic_streambufIcNS_11char_traitsIcEEE5epptrEv)
                  00017000    00000070     sysbios.aem4f : BIOS.obj (.text:ti_sysbios_knl_Clock_workFunc__E)
                  00017070    00000070                   : BIOS.obj (.text:ti_sysbios_knl_Task_exit__E)
                  000170e0    00000070     empty_pem4f.oem4f (.text:ti_uia_loggers_LoggerStopMode_write1__E)
                  00017150    0000006e     rtsv7M4_T_le_v4SPD16_eabi.lib : _printfi.c.obj (.text:_mcpy)
                  000171be    0000006e                                   : fd_tos_t2.asm.obj (.text)
                  0001722c    0000006d     ti.targets.arm.rtsarm.aem4f : System.oem4f (.text:xdc_runtime_System_formatNum__I)
                  00017299    00000003     --HOLE-- [fill = 0]
                  0001729c    0000006c     driverlib.lib : can.obj (.text:CANBitRateSet)
                  00017308    0000006c     rtsv7M4_T_le_v4SPD16_eabi.lib : hostrename.c.obj (.text:HOSTrename)
                  00017374    0000006c     Handler.obj (.text:_ZN7HandlerC1Ev)
                  000173e0    0000006c     NetReceive.obj (.text:_ZNSt3__25dequeI19messageIncomingInfoNS_9allocatorIS1_EEE9pop_frontEv)
                  0001744c    0000006c     Can.obj (.text:_ZNSt3__26__treeINS_12__value_typeIi12CanMessage_tEENS_19__map_value_compareIiS3_NS_4lessIiEELb1EEENS_9allocatorIS3_EEE16__construct_nodeIJNS_4pairIiS2_EEEEENS_10unique_ptrINS_11__tree_nodeIS3_PvEENS_22__tree_node_destructorINS8_ISH_EEEEEEDpOT_)
                  000174b8    0000006c     rtsv7M4_T_le_v4SPD16_eabi.lib : locale.cpp.obj (.text:_ZNSt3__26locale5__imp7installEPNS0_5facetEl)
                  00017524    0000006c     ArgumentArray.obj (.text:_ZNSt3__26vectorItNS_9allocatorItEEE26__swap_out_circular_bufferERNS_14__split_bufferItRS2_EE)
                  00017590    0000006c     sysbios.aem4f : BIOS.obj (.text:ti_sysbios_knl_Swi_restoreHwi__E)
                  000175fc    0000006c     ti.targets.arm.rtsarm.aem4f : Error.oem4f (.text:xdc_runtime_Error_print__E)
                  00017668    0000006c                                 : Memory.oem4f (.text:xdc_runtime_Memory_alloc__E)
                  000176d4    00000068     rtsv7M4_T_le_v4SPD16_eabi.lib : hostlseek.c.obj (.text:HOSTlseek)
                  0001773c    00000068     driverlib.lib : interrupt.obj (.text:IntEnable)
                  000177a4    00000068     isotp.obj (.text:_ZN30_INTERNAL_9_isotp_cpp_dbeeafe923isotp_send_flow_controlEP9IsoTpLinkhhh)
                  0001780c    00000068     rtsv7M4_T_le_v4SPD16_eabi.lib : locale.cpp.obj (.text:_ZNKSt3__220__time_get_c_storageIcE3__XEv)
                  00017874    00000068                                   : locale.cpp.obj (.text:_ZNKSt3__220__time_get_c_storageIcE3__xEv)
                  000178dc    00000068                                   : locale.cpp.obj (.text:_ZNKSt3__28time_getIcNS_19istreambuf_iteratorIcNS_11char_traitsIcEEEEE13__get_percentERS4_S4_RjRKNS_5ctypeIcEE)
                  00017944    00000068                                   : locale.cpp.obj (.text:_ZNKSt3__28time_getIwNS_19istreambuf_iteratorIwNS_11char_traitsIwEEEEE13__get_percentERS4_S4_RjRKNS_5ctypeIwEE)
                  000179ac    00000068                                   : locale.cpp.obj (.text:_ZNKSt3__28time_putIwNS_19ostreambuf_iteratorIwNS_11char_traitsIwEEEEE6do_putES4_RNS_8ios_baseEwPK2tmcc)
                  00017a14    00000068                                   : locale.cpp.obj (.text:_ZNSt3__29__num_getIcE19__stage2_float_prepERNS_8ios_baseEPcRcS5_)
                  00017a7c    00000068                                   : locale.cpp.obj (.text:_ZNSt3__29__num_getIwE19__stage2_float_prepERNS_8ios_baseEPwRwS5_)
                  00017ae4    00000068     main.obj (.text:__sti___8_main_cpp_can0)
                  00017b4c    00000068     rtsv7M4_T_le_v4SPD16_eabi.lib : sscanf.c.obj (.text:_chkmbc)
                  00017bb4    00000068                                   : copy_decompress_lzss.c.obj (.text:decompress:lzss:__TI_decompress_lzss)
                  00017c1c    00000068                                   : printf.c.obj (.text:printf)
                  00017c84    00000066                                   : locale.cpp.obj (.text:_ZNKSt3__28time_putIcNS_19ostreambuf_iteratorIcNS_11char_traitsIcEEEEE6do_putES4_RNS_8ios_baseEcPK2tmcc)
                  00017cea    00000066     ti.uia.loggers.aem4f : LoggerStopMode.oem4f (.text:ti_uia_loggers_LoggerStopMode_flush__E)
                  00017d50    00000066     ti.targets.arm.rtsarm.aem4f : Core-mem.oem4f (.text:xdc_runtime_Core_deleteObject__I)
                  00017db6    00000064     rtsv7M4_T_le_v4SPD16_eabi.lib : ios.cpp.obj (.text:_ZNSt3__215basic_streambufIcNS_11char_traitsIcEEE6xsputnEPKci)
                  00017e1a    00000064     ArgumentArray.obj (.text:_ZNSt3__26vectorItNS_9allocatorItEEE21__push_back_slow_pathItEEvOT_)
                  00017e7e    00000002     --HOLE-- [fill = 0]
                  00017e80    00000064     rtsv7M4_T_le_v4SPD16_eabi.lib : fprintf.c.obj (.text:fprintf)
                  00017ee4    00000064                                   : s_frexp.c.obj (.text:frexp)
                  00017f48    00000064                                   : fseek.c.obj (.text:fseek)
                  00017fac    00000064     empty_pem4f.oem4f (.text:realloc)
                  00018010    00000064     sysbios.aem4f : BIOS.obj (.text:ti_sysbios_family_arm_lm4_Timer_Module_startup__E)
                  00018074    00000004     rtsv7M4_T_le_v4SPD16_eabi.lib : ios.cpp.obj (.text:_ZNKSt3__215basic_streambufIcNS_11char_traitsIcEEE5pbaseEv)
                  00018078    00000064     sysbios.aem4f : BIOS.obj (.text:ti_sysbios_family_arm_m3_Hwi_dispatchC__I)
                  000180dc    00000063     NetReceive.obj (.text:_ZN10NetReceive9notifyMsgEtbjjtt)
                  0001813f    00000001     --HOLE-- [fill = 0]
                  00018140    00000062     ArgumentArray.obj (.text:_ZNSt3__26vectorItNS_9allocatorItEEE9push_backEOt)
                  000181a2    00000062     rtsv7M4_T_le_v4SPD16_eabi.lib : _io_perm.c.obj (.text:__TI_wrt_ok)
                  00018204    00000060                                   : hostopen.c.obj (.text:HOSTopen)
                  00018264    00000060     isotp.obj (.text:_Z13isotp_receiveP9IsoTpLinkPhtPt)
                  000182c4    00000060     Can.obj (.text:_ZN3Can8writeMsgEt12TimeDurationNSt3__212basic_stringIcNS1_11char_traitsIcEENS1_9allocatorIcEEEEbt)
                  00018324    00000060     ArgumentArray.obj (.text:_ZNSt3__214__split_bufferINS_5tupleIJNS_12basic_stringIcNS_11char_traitsIcEENS_9allocatorIcEEEE8ArgumentEEERNS5_IS9_EEEC1EjjSB_)
                  00018384    00000060     Can.obj (.text:_ZNSt3__214__split_bufferIP12CanMessage_tRNS_9allocatorIS2_EEEC1EjjS5_)
                  000183e4    00000060     NetReceive.obj (.text:_ZNSt3__214__split_bufferIP19messageIncomingInfoRNS_9allocatorIS2_EEEC1EjjS5_)
                  00018444    00000060     ArgumentArray.obj (.text:_ZNSt3__214__split_bufferItRNS_9allocatorItEEEC1EjjS3_)
                  000184a4    00000060     Can.obj (.text:_ZNSt3__26__treeINS_12__value_typeIi12CanMessage_tEENS_19__map_value_compareIiS3_NS_4lessIiEELb1EEENS_9allocatorIS3_EEE16__insert_node_atEPNS_15__tree_end_nodeIPNS_16__tree_node_baseIPvEEEERSF_SF_)
                  00018504    00000004     rtsv7M4_T_le_v4SPD16_eabi.lib : locale.cpp.obj (.text:_ZNKSt3__25ctypeIcE8do_widenEc)
                  00018508    00000060     sysbios.aem4f : BIOS.obj (.text:ti_sysbios_knl_Task_schedule__I)
                  00018568    0000005e     ArgumentArray.obj (.text:_ZN13ArgumentArray10getIndexesERNSt3__26vectorItNS0_9allocatorItEEEE)
                  000185c6    0000005e     rtsv7M4_T_le_v4SPD16_eabi.lib : locale.cpp.obj (.text:_ZNKSt3__219istreambuf_iteratorIcNS_11char_traitsIcEEE5equalERKS3_)
                  00018624    0000005e                                   : locale.cpp.obj (.text:_ZNKSt3__219istreambuf_iteratorIwNS_11char_traitsIwEEE5equalERKS3_)
                  00018682    0000005e                                   : locale.cpp.obj (.text:_ZNSt3__2eqIcNS_11char_traitsIcEEEEbRKNS_19istreambuf_iteratorIT_T0_EES8_)
                  000186e0    0000005e                                   : locale.cpp.obj (.text:_ZNSt3__2neIwNS_11char_traitsIwEEEEbRKNS_19istreambuf_iteratorIT_T0_EES8_)
                  0001873e    0000005e     empty_pem4f.oem4f (.text:ti_uia_loggers_LoggerStopMode_writeStart)
                  0001879c    0000005c     driverlib.lib : can.obj (.text:_CANIntNumberGet)
                  000187f8    0000005c     rtsv7M4_T_le_v4SPD16_eabi.lib : locale.cpp.obj (.text:_ZNKSt3__27collateIcE12do_transformEPKcS3_)
                  00018854    0000005c     Can.obj (.text:_ZNSt3__26__treeINS_12__value_typeIi12CanMessage_tEENS_19__map_value_compareIiS3_NS_4lessIiEELb1EEENS_9allocatorIS3_EEE4findIiEENS_15__tree_iteratorIS3_PNS_11__tree_nodeIS3_PvEEiEERKT_)
                  000188b0    0000005c     rtsv7M4_T_le_v4SPD16_eabi.lib : close.c.obj (.text:close)
                  0001890c    00000004                                   : locale.cpp.obj (.text:_ZNKSt3__25ctypeIwE8do_widenEc)
                  00018910    0000005c     sysbios.aem4f : BIOS.obj (.text:ti_sysbios_knl_Swi_run__I)
                  0001896c    00000004     rtsv7M4_T_le_v4SPD16_eabi.lib : locale.cpp.obj (.text:_ZNKSt3__27codecvtIDiciE11do_encodingEv)
                  00018970    0000005c     sysbios.aem4f : BIOS.obj (.text:ti_sysbios_knl_Swi_schedule__I)
                  000189cc    00000004     rtsv7M4_T_le_v4SPD16_eabi.lib : locale.cpp.obj (.text:_ZNKSt3__27codecvtIDiciE13do_max_lengthEv)
                  000189d0    0000005c     sysbios.aem4f : BIOS.obj (.text:ti_sysbios_knl_Task_Module_startup__E)
                  00018a2c    00000004     rtsv7M4_T_le_v4SPD16_eabi.lib : locale.cpp.obj (.text:_ZNKSt3__27codecvtIDiciE16do_always_noconvEv)
                  00018a30    0000005c     sysbios.aem4f : BIOS.obj (.text:ti_sysbios_knl_Task_startCore__E)
                  00018a8c    0000005c     empty_pem4f.oem4f (.text:ti_uia_loggers_LoggerStopMode_write0__E)
                  00018ae8    0000005b     ti.targets.arm.rtsarm.aem4f : Text.oem4f (.text:xdc_runtime_Text_putLab__E)
                  00018b43    00000001     --HOLE-- [fill = 0]
                  00018b44    0000005a     rtsv7M4_T_le_v4SPD16_eabi.lib : locale.cpp.obj (.text:_ZNKSt3__28time_getIwNS_19istreambuf_iteratorIwNS_11char_traitsIwEEEEE11do_get_dateES4_S4_RNS_8ios_baseERjP2tm)
                  00018b9e    0000005a                                   : locale.cpp.obj (.text:_ZNKSt3__28time_getIwNS_19istreambuf_iteratorIwNS_11char_traitsIwEEEEE17__get_white_spaceERS4_S4_RjRKNS_5ctypeIwEE)
                  00018bf8    00000058     boot.aem4f : boot.oem4f (.text)
                  00018c50    00000058     rtsv7M4_T_le_v4SPD16_eabi.lib : hostread.c.obj (.text:HOSTread)
                  00018ca8    00000058                                   : hostwrite.c.obj (.text:HOSTwrite)
                  00018d00    00000058                                   : locale.cpp.obj (.text:_ZNKSt3__28time_getIcNS_19istreambuf_iteratorIcNS_11char_traitsIcEEEEE17__get_white_spaceERS4_S4_RjRKNS_5ctypeIcEE)
                  00018d58    00000058     sysbios.aem4f : m3_Hwi_asm_switch.obj (.text:ti_sysbios_family_arm_m3_Hwi_initStacks__E)
                  00018db0    00000056     ArgumentArray.obj (.text:_ZN13ArgumentArray10putByIndexEt8Argument)
                  00018e06    00000056     ArgumentArray.obj (.text:_ZNKSt3__26vectorINS_5tupleIJNS_12basic_stringIcNS_11char_traitsIcEENS_9allocatorIcEEEE8ArgumentEEENS5_IS9_EEE17__annotate_deleteEv)
                  00018e5c    00000056     ArgumentArray.obj (.text:_ZNKSt3__26vectorItNS_9allocatorItEEE17__annotate_deleteEv)
                  00018eb2    00000056     rtsv7M4_T_le_v4SPD16_eabi.lib : locale.cpp.obj (.text:_ZNKSt3__28time_getIcNS_19istreambuf_iteratorIcNS_11char_traitsIcEEEEE11do_get_dateES4_S4_RNS_8ios_baseERjP2tm)
                  00018f08    00000056     Can.obj (.text:_ZNSt3__212__deque_baseI12CanMessage_tNS_9allocatorIS1_EEE3endEv)
                  00018f5e    00000056     NetReceive.obj (.text:_ZNSt3__212__deque_baseI19messageIncomingInfoNS_9allocatorIS1_EEE3endEv)
                  00018fb4    00000056     Can.obj (.text:_ZNSt3__218__tree_left_rotateIPNS_16__tree_node_baseIPvEEEEvT_)
                  0001900a    00000056     Can.obj (.text:_ZNSt3__219__tree_right_rotateIPNS_16__tree_node_baseIPvEEEEvT_)
                  00019060    00000056     Handler.obj (.text:_ZNSt3__26vectorIhNS_9allocatorIhEEEC1ESt16initializer_listIhE)
                  000190b6    00000056     rtsv7M4_T_le_v4SPD16_eabi.lib : _printfi.c.obj (.text:_pconv_f)
                  0001910c    00000054     ArgumentArray.obj (.text:_ZNKSt3__26vectorINS_5tupleIJNS_12basic_stringIcNS_11char_traitsIcEENS_9allocatorIcEEEE8ArgumentEEENS5_IS9_EEE14__annotate_newEj)
                  00019160    00000054     ArgumentArray.obj (.text:_ZNKSt3__26vectorItNS_9allocatorItEEE14__annotate_newEj)
                  000191b4    00000054     rtsv7M4_T_le_v4SPD16_eabi.lib : _ltoa.c.obj (.text:__TI_ltoa)
                  00019208    00000054     sysbios.aem4f : BIOS.obj (.text:ti_sysbios_family_arm_lm4_Timer_initDevice__I)
                  0001925c    00000054     empty_pem4f.oem4f (.text:ti_sysbios_knl_Task_construct)
                  000192b0    00000054     ti.targets.arm.rtsarm.aem4f : Assert.oem4f (.text:xdc_runtime_Assert_raise__I)
                  00019304    00000052     rtsv7M4_T_le_v4SPD16_eabi.lib : _printfi.c.obj (.text:_ecpy)
                  00019356    00000050                                   : ios.cpp.obj (.text:_ZNSt3__213basic_ostreamIcNS_11char_traitsIcEEE5flushEv)
                  000193a6    00000002     --HOLE-- [fill = 0]
                  000193a8    00000050     sysbios.aem4f : BIOS.obj (.text:ti_sysbios_family_arm_m3_Hwi_Module_startup__E)
                  000193f8    00000050     ti.targets.arm.rtsarm.aem4f : Startup.oem4f (.text:xdc_runtime_Startup_exec__E)
                  00019448    00000050                                 : Text.oem4f (.text:xdc_runtime_Text_visitRope2__I)
                  00019498    0000004e     Handler.obj (.text:_ZNKSt3__26vectorIhNS_9allocatorIhEEE14__annotate_newEj)
                  000194e6    0000004e     rtsv7M4_T_le_v4SPD16_eabi.lib : ios.cpp.obj (.text:_ZNSt3__213basic_ostreamIcNS_11char_traitsIcEEE5writeEPKci)
                  00019534    0000004d     Argument.obj (.text:_ZN8ArgumentD1Ev)
                  00019581    00000001     --HOLE-- [fill = 0]
                  00019582    0000004c     isotp.obj (.text:_Z15isotp_init_linkP9IsoTpLinkjPhtS1_t)
                  000195ce    00000002     --HOLE-- [fill = 0]
                  000195d0    0000004c     Can.obj (.text:_ZN3Can11sendMessageEjPKhh)
                  0001961c    0000004c     rtsv7M4_T_le_v4SPD16_eabi.lib : string.cpp.obj (.text:_ZNSt3__212basic_stringIcNS_11char_traitsIcEENS_9allocatorIcEEEC1ERKS5_)
                  00019668    0000004c                                   : string.cpp.obj (.text:_ZNSt3__212basic_stringIwNS_11char_traitsIwEENS_9allocatorIwEEEC1ERKS5_)
                  000196b4    0000004c                                   : ios.cpp.obj (.text:_ZNSt3__213basic_ostreamIcNS_11char_traitsIcEEE6sentryC1ERS3_)
                  00019700    0000004c     Can.obj (.text:_ZNSt3__23mapIi12CanMessage_tNS_4lessIiEENS_9allocatorINS_4pairIKiS1_EEEEEixEOi)
                  0001974c    0000004c     Can.obj (.text:_ZNSt3__25dequeI12CanMessage_tNS_9allocatorIS1_EEE9push_backERKS1_)
                  00019798    0000004c     NetReceive.obj (.text:_ZNSt3__25dequeI19messageIncomingInfoNS_9allocatorIS1_EEE9push_backERKS1_)
                  000197e4    0000004c     rtsv7M4_T_le_v4SPD16_eabi.lib : fflush.c.obj (.text:__TI_doflush)
                  00019830    0000004c                                   : atoi.c.obj (.text:atoi)
                  0001987c    0000004c                                   : cpy_tbl.c.obj (.text:copy_in)
                  000198c8    0000004c                                   : snprintf.c.obj (.text:snprintf)
                  00019914    00000004                                   : locale.cpp.obj (.text:_ZNKSt3__27codecvtIDsciE11do_encodingEv)
                  00019918    0000004c     sysbios.aem4f : BIOS.obj (.text:ti_sysbios_heaps_HeapMem_getStats__E)
                  00019964    00000004     rtsv7M4_T_le_v4SPD16_eabi.lib : locale.cpp.obj (.text:_ZNKSt3__27codecvtIDsciE13do_max_lengthEv)
                  00019968    0000004c     sysbios.aem4f : BIOS.obj (.text:ti_sysbios_knl_Swi_runLoop__I)
                  000199b4    00000004     rtsv7M4_T_le_v4SPD16_eabi.lib : locale.cpp.obj (.text:_ZNKSt3__27codecvtIDsciE16do_always_noconvEv)
                  000199b8    0000004c     sysbios.aem4f : BIOS.obj (.text:ti_sysbios_knl_Task_allBlockedFunction__I)
                  00019a04    0000004c     ti.uia.loggers.aem4f : LoggerStopMode.oem4f (.text:ti_uia_loggers_LoggerStopMode_Module_startup__E)
                  00019a50    0000004a     ArgumentArray.obj (.text:_ZNKSt3__26vectorINS_5tupleIJNS_12basic_stringIcNS_11char_traitsIcEENS_9allocatorIcEEEE8ArgumentEEENS5_IS9_EEE11__recommendEj)
                  00019a9a    0000004a     ArgumentArray.obj (.text:_ZNKSt3__26vectorItNS_9allocatorItEEE11__recommendEj)
                  00019ae4    0000004a     Can.obj (.text:_ZNSt3__212__deque_baseI12CanMessage_tNS_9allocatorIS1_EEED1Ev)
                  00019b2e    0000004a     NetReceive.obj (.text:_ZNSt3__212__deque_baseI19messageIncomingInfoNS_9allocatorIS1_EEED1Ev)
                  00019b78    0000004a     rtsv7M4_T_le_v4SPD16_eabi.lib : locale.cpp.obj (.text:_ZNSt3__214__num_put_base12__format_intEPcPKcbj)
                  00019bc2    0000004a     ArgumentArray.obj (.text:_ZNSt3__214__split_bufferINS_5tupleIJNS_12basic_stringIcNS_11char_traitsIcEENS_9allocatorIcEEEE8ArgumentEEERNS5_IS9_EEE18__construct_at_endINS_13move_iteratorIPS9_EEEENS_9enable_ifIXsr3std3__221__is_forward_iteratorIT_EE5valueEvE4typeESI_SI_)
                  00019c0c    0000004a     Can.obj (.text:_ZNSt3__214__split_bufferIP12CanMessage_tRNS_9allocatorIS2_EEE18__construct_at_endINS_13move_iteratorIPS2_EEEENS_9enable_ifIXsr3std3__221__is_forward_iteratorIT_EE5valueEvE4typeESC_SC_)
                  00019c56    0000004a     NetReceive.obj (.text:_ZNSt3__214__split_bufferIP19messageIncomingInfoRNS_9allocatorIS2_EEE18__construct_at_endINS_13move_iteratorIPS2_EEEENS_9enable_ifIXsr3std3__221__is_forward_iteratorIT_EE5valueEvE4typeESC_SC_)
                  00019ca0    0000004a     Can.obj (.text:_ZNSt3__26__treeINS_12__value_typeIi12CanMessage_tEENS_19__map_value_compareIiS3_NS_4lessIiEELb1EEENS_9allocatorIS3_EEE13__lower_boundIiEENS_15__tree_iteratorIS3_PNS_11__tree_nodeIS3_PvEEiEERKT_SG_PNS_15__tree_end_nodeIPNS_16__tree_node_baseISE_EEEE)
                  00019cea    00000002     --HOLE-- [fill = 0]
                  00019cec    00000048     driverlib.lib : gpio.obj (.text:GPIOPinConfigure)
                  00019d34    00000048     rtsv7M4_T_le_v4SPD16_eabi.lib : locale.cpp.obj (.text:_ZNKSt3__27codecvtIDiciE6do_outERiPKDiS4_RS4_PcS6_RS6_)
                  00019d7c    00000048                                   : locale.cpp.obj (.text:_ZNKSt3__27codecvtIDsciE6do_outERiPKDsS4_RS4_PcS6_RS6_)
                  00019dc4    00000048                                   : locale.cpp.obj (.text:_ZNKSt3__27codecvtIwciE10do_unshiftERiPcS3_RS3_)
                  00019e0c    00000048                                   : locale.cpp.obj (.text:_ZNKSt3__27codecvtIwciE9do_lengthERiPKcS4_j)
                  00019e54    00000048     Codec.obj (.text:_ZNSt3__215basic_stringbufIcNS_11char_traitsIcEENS_9allocatorIcEEEC1Ej)
                  00019e9c    00000048     rtsv7M4_T_le_v4SPD16_eabi.lib : exit.c.obj (.text:exit)
                  00019ee4    00000048                                   : none_mb.c.obj (.text:mbsnrtowcs)
                  00019f2c    00000048                                   : fd_toi_t2.asm.obj (.text)
                  00019f74    00000004                                   : locale.cpp.obj (.text:_ZNKSt3__27codecvtIcciE11do_encodingEv)
                  00019f78    00000048     sysbios.aem4f : BIOS.obj (.text:ti_sysbios_family_arm_lm4_Timer_enableTimers__I)
                  00019fc0    00000048                   : BIOS.obj (.text:ti_sysbios_family_arm_m3_Hwi_disableInterrupt__E)
                  0001a008    00000048                   : BIOS.obj (.text:ti_sysbios_family_arm_m3_Hwi_enableInterrupt__E)
                  0001a050    00000048                   : BIOS.obj (.text:ti_sysbios_family_arm_m3_Hwi_excReserved__I)
                  0001a098    00000046     rtsv7M4_T_le_v4SPD16_eabi.lib : locale.cpp.obj (.text:_ZNKSt3__28time_getIcNS_19istreambuf_iteratorIcNS_11char_traitsIcEEEEE15__get_monthnameERiRS4_S4_RjRKNS_5ctypeIcEE)
                  0001a0de    00000046                                   : locale.cpp.obj (.text:_ZNKSt3__28time_getIcNS_19istreambuf_iteratorIcNS_11char_traitsIcEEEEE17__get_weekdaynameERiRS4_S4_RjRKNS_5ctypeIcEE)
                  0001a124    00000046                                   : locale.cpp.obj (.text:_ZNKSt3__28time_getIwNS_19istreambuf_iteratorIwNS_11char_traitsIwEEEEE15__get_monthnameERiRS4_S4_RjRKNS_5ctypeIwEE)
                  0001a16a    00000046                                   : locale.cpp.obj (.text:_ZNKSt3__28time_getIwNS_19istreambuf_iteratorIwNS_11char_traitsIwEEEEE17__get_weekdaynameERiRS4_S4_RjRKNS_5ctypeIwEE)
                  0001a1b0    00000046     Can.obj (.text:_ZNSt3__212__deque_baseI12CanMessage_tNS_9allocatorIS1_EEE5beginEv)
                  0001a1f6    00000046     NetReceive.obj (.text:_ZNSt3__212__deque_baseI19messageIncomingInfoNS_9allocatorIS1_EEE5beginEv)
                  0001a23c    00000046     ArgumentArray.obj (.text:_ZNSt3__216allocator_traitsINS_9allocatorINS_5tupleIJNS_12basic_stringIcNS_11char_traitsIcEENS1_IcEEEE8ArgumentEEEEEE19__construct_forwardIPS9_EEvRSA_T_SF_RSF_)
                  0001a282    00000046     ArgumentArray.obj (.text:_ZNSt3__216allocator_traitsINS_9allocatorINS_5tupleIJNS_12basic_stringIcNS_11char_traitsIcEENS1_IcEEEE8ArgumentEEEEEE20__construct_backwardIPS9_EEvRSA_T_SF_RSF_)
                  0001a2c8    00000046     Handler.obj (.text:_ZNSt3__26vectorIhNS_9allocatorIhEEE8allocateEj)
                  0001a30e    00000046     Can.obj (.text:_ZNSt3__29allocatorINS_11__tree_nodeINS_12__value_typeIi12CanMessage_tEEPvEEE9constructINS_4pairIKiS3_EEJRKNS_21piecewise_construct_tENS_5tupleIJOiEEENSF_IJEEEEEEvPT_DpOT0_)
                  0001a354    00000046     ti.targets.arm.rtsarm.aem4f : Core-params.oem4f (.text:xdc_runtime_Core_assignParams__I)
                  0001a39a    00000002     --HOLE-- [fill = 0]
                  0001a39c    00000044     rtsv7M4_T_le_v4SPD16_eabi.lib : hostclose.c.obj (.text:HOSTclose)
                  0001a3e0    00000044                                   : hostunlink.c.obj (.text:HOSTunlink)
                  0001a424    00000044                                   : dtor_list.c.obj (.text:_Z25__add_destruction_to_listPP20a_needed_destructionPFYvPvES2_S2_)
                  0001a468    00000044                                   : locale.cpp.obj (.text:_ZNKSt3__210__time_put8__do_putEPcRS1_PK2tmcc)
                  0001a4ac    00000044                                   : locale.cpp.obj (.text:_ZNKSt3__27codecvtIDiciE5do_inERiPKcS4_RS4_PDiS6_RS6_)
                  0001a4f0    00000044                                   : locale.cpp.obj (.text:_ZNKSt3__27codecvtIDsciE5do_inERiPKcS4_RS4_PDsS6_RS6_)
                  0001a534    00000044                                   : getdevice.c.obj (.text:getdevice)
                  0001a578    00000044     empty_pem4f.oem4f (.text:malloc)
                  0001a5bc    00000004     rtsv7M4_T_le_v4SPD16_eabi.lib : locale.cpp.obj (.text:_ZNKSt3__27codecvtIcciE13do_max_lengthEv)
                  0001a5c0    00000044     sysbios.aem4f : BIOS.obj (.text:ti_sysbios_family_arm_lm4_Timer_isrStub__E)
                  0001a604    00000004     rtsv7M4_T_le_v4SPD16_eabi.lib : locale.cpp.obj (.text:_ZNKSt3__27codecvtIcciE16do_always_noconvEv)
                  0001a608    00000044     sysbios.aem4f : BIOS.obj (.text:ti_sysbios_family_arm_m3_Hwi_getStackInfo__E)
                  0001a64c    00000044     empty_pem4f.oem4f (.text:ti_sysbios_knl_Clock_create)
                  0001a690    00000044     sysbios.aem4f : BIOS.obj (.text:ti_sysbios_knl_Swi_post__E)
                  0001a6d4    00000044     ti.uia.loggers.aem4f : LoggerStopMode.oem4f (.text:ti_uia_loggers_LoggerStopMode_initBuffer__I)
                  0001a718    00000044     ti.targets.arm.rtsarm.aem4f : Error.oem4f (.text:xdc_runtime_Error_setX__E)
                  0001a75c    00000044                                 : SysMin.oem4f (.text:xdc_runtime_SysMin_flush__E)
                  0001a7a0    00000044                                 : Text.oem4f (.text:xdc_runtime_Text_xprintf__I)
                  0001a7e4    00000042     rtsv7M4_T_le_v4SPD16_eabi.lib : dtor_list.c.obj (.text:_Z23__finalize_destructionsPP20a_needed_destructionPv)
                  0001a826    00000002     --HOLE-- [fill = 0]
                  0001a828    00000042     NetReceive.obj (.text:_ZN10NetReceive22getMessageIncomingInfoEv)
                  0001a86a    00000002     --HOLE-- [fill = 0]
                  0001a86c    00000042     isotp.obj (.text:_ZN30_INTERNAL_9_isotp_cpp_dbeeafe932isotp_receive_flow_control_frameEP9IsoTpLinkP15IsoTpCanMessageh)
                  0001a8ae    00000042     Can.obj (.text:_ZN3Can7readMsgEt12TimeDurationRjRNSt3__212basic_stringIcNS2_11char_traitsIcEENS2_9allocatorIcEEEERb)
                  0001a8f0    00000042     rtsv7M4_T_le_v4SPD16_eabi.lib : locale.cpp.obj (.text:_ZNSt3__214__split_bufferIPNS_6locale5facetERNS_15__sso_allocatorIS3_Lj28EEEEC1EjjS6_)
                  0001a932    00000042     Handler.obj (.text:_ZNSt3__216allocator_traitsINS_9allocatorIhEEE25__construct_range_forwardIPKhPhEEvRS2_T_S9_RT0_)
                  0001a974    00000042     Can.obj (.text:_ZNSt3__26__treeINS_12__value_typeIi12CanMessage_tEENS_19__map_value_compareIiS3_NS_4lessIiEELb1EEENS_9allocatorIS3_EEE7destroyEPNS_11__tree_nodeIS3_PvEE)
                  0001a9b6    00000040     driverlib.lib : can.obj (.text:CANStatusGet)
                  0001a9f6    00000002     --HOLE-- [fill = 0]
                  0001a9f8    00000040     EK_TM4C123GXL.obj (.text:EK_TM4C123GXL_initGeneral)
                  0001aa38    00000040     isotp.obj (.text:_ZN30_INTERNAL_9_isotp_cpp_dbeeafe918isotp_st_min_to_msEh)
                  0001aa78    00000040     rtsv7M4_T_le_v4SPD16_eabi.lib : locale.cpp.obj (.text:_ZNKSt3__28time_getIcNS_19istreambuf_iteratorIcNS_11char_traitsIcEEEEE11do_get_yearES4_S4_RNS_8ios_baseERjP2tm)
                  0001aab8    00000040                                   : locale.cpp.obj (.text:_ZNKSt3__28time_getIcNS_19istreambuf_iteratorIcNS_11char_traitsIcEEEEE14do_get_weekdayES4_S4_RNS_8ios_baseERjP2tm)
                  0001aaf8    00000040                                   : locale.cpp.obj (.text:_ZNKSt3__28time_getIcNS_19istreambuf_iteratorIcNS_11char_traitsIcEEEEE16do_get_monthnameES4_S4_RNS_8ios_baseERjP2tm)
                  0001ab38    00000040                                   : locale.cpp.obj (.text:_ZNKSt3__28time_getIwNS_19istreambuf_iteratorIwNS_11char_traitsIwEEEEE11do_get_timeES4_S4_RNS_8ios_baseERjP2tm)
                  0001ab78    00000040                                   : locale.cpp.obj (.text:_ZNKSt3__28time_getIwNS_19istreambuf_iteratorIwNS_11char_traitsIwEEEEE11do_get_yearES4_S4_RNS_8ios_baseERjP2tm)
                  0001abb8    00000040                                   : locale.cpp.obj (.text:_ZNKSt3__28time_getIwNS_19istreambuf_iteratorIwNS_11char_traitsIwEEEEE14do_get_weekdayES4_S4_RNS_8ios_baseERjP2tm)
                  0001abf8    00000040                                   : locale.cpp.obj (.text:_ZNKSt3__28time_getIwNS_19istreambuf_iteratorIwNS_11char_traitsIwEEEEE16do_get_monthnameES4_S4_RNS_8ios_baseERjP2tm)
                  0001ac38    00000040     ArgumentArray.obj (.text:_ZNSt3__213__vector_baseINS_5tupleIJNS_12basic_stringIcNS_11char_traitsIcEENS_9allocatorIcEEEE8ArgumentEEENS5_IS9_EEE17__destruct_at_endEPS9_)
                  0001ac78    00000040     Handler.obj (.text:_ZNSt3__213__vector_baseIhNS_9allocatorIhEEE17__destruct_at_endEPh)
                  0001acb8    00000040     Codec.obj (.text:_ZNSt3__213__vector_baseItNS_9allocatorItEEE17__destruct_at_endEPt)
                  0001acf8    00000040     Codec.obj (.text:_ZNSt3__218basic_stringstreamIcNS_11char_traitsIcEENS_9allocatorIcEEED2Ev)
                  0001ad38    00000040     rtsv7M4_T_le_v4SPD16_eabi.lib : locale.cpp.obj (.text:_ZNSt3__26locale2id5__getEv)
                  0001ad78    00000040                                   : ios.cpp.obj (.text:_ZNSt3__28ios_base4initEPv)
                  0001adb8    00000040                                   : u_divt2.asm.obj (.text)
                  0001adf8    00000040                                   : sprintf.c.obj (.text:sprintf)
                  0001ae38    00000040     sysbios.aem4f : BIOS.obj (.text:ti_sysbios_family_arm_lm4_Timer_startup__E)
                  0001ae78    00000040     empty_pem4f.oem4f (.text:ti_sysbios_gates_GateHwi_Object__create__S)
                  0001aeb8    00000040     empty_pem4f.oem4f (.text:ti_sysbios_gates_GateMutex_Object__create__S)
                  0001aef8    00000040     empty_pem4f.oem4f (.text:ti_sysbios_heaps_HeapMem_Object__create__S)
                  0001af38    00000040     sysbios.aem4f : BIOS.obj (.text:ti_sysbios_knl_Task_yield__E)
                  0001af78    00000040     empty_pem4f.oem4f (.text:ti_uia_loggers_LoggerStopMode_Object__create__S)
                  0001afb8    00000040     rtsv7M4_T_le_v4SPD16_eabi.lib : vsnprintf.c.obj (.text:vsnprintf)
                  0001aff8    0000003e     ArgumentArray.obj (.text:_ZNSt3__25tupleIJNS_12basic_stringIcNS_11char_traitsIcEENS_9allocatorIcEEEE8ArgumentEEC1IJRA1_KcRS7_ELb0ELb0EEEDpOT_)
                  0001b036    0000003e     rtsv7M4_T_le_v4SPD16_eabi.lib : locale.cpp.obj (.text:_ZNSt3__26vectorIPNS_6locale5facetENS_15__sso_allocatorIS3_Lj28EEEE8allocateEj)
                  0001b074    0000003e                                   : _printfi.c.obj (.text:_fcpy)
                  0001b0b2    0000003e     empty_pem4f.oem4f (.text:xdc_runtime_SysMin_output__I)
                  0001b0f0    0000003c     ArgumentArray.obj (.text:_ZNSt3__212__tuple_implINS_15__tuple_indicesIJLj0ELj1EEEEJNS_12basic_stringIcNS_11char_traitsIcEENS_9allocatorIcEEEE8ArgumentEEaSEOSA_)
                  0001b12c    0000003c     ArgumentArray.obj (.text:_ZNSt3__216allocator_traitsINS_9allocatorItEEE20__construct_backwardItEENS_9enable_ifIXaaoosr3std3__27is_sameIS2_NS1_IT_EEEE5valuentsr3std3__215__has_constructIS2_PS6_JS6_EEE5valuesr3std3__231is_trivially_move_constructibleIS6_EE5valueEvE4typeERS2_S8_S8_RS8_)
                  0001b168    0000003c     sysbios.aem4f : BIOS.obj (.text:ti_sysbios_family_arm_m3_Hwi_excSvCall__I)
                  0001b1a4    00000004     rtsv7M4_T_le_v4SPD16_eabi.lib : locale.cpp.obj (.text:_ZNKSt3__27codecvtIwciE16do_always_noconvEv)
                  0001b1a8    0000003c     sysbios.aem4f : BIOS.obj (.text:ti_sysbios_heaps_HeapMem_init__I)
                  0001b1e4    00000004     rtsv7M4_T_le_v4SPD16_eabi.lib : locale.cpp.obj (.text:_ZNKSt3__28numpunctIcE16do_decimal_pointEv)
                  0001b1e8    0000003c     sysbios.aem4f : BIOS.obj (.text:ti_sysbios_knl_Swi_restore__E)
                  0001b224    0000003a     driverlib.lib : can.obj (.text:CANInit)
                  0001b25e    0000003a     rtsv7M4_T_le_v4SPD16_eabi.lib : locale.cpp.obj (.text:_ZNKSt3__27collateIwE10do_compareEPKwS3_S3_S3_)
                  0001b298    0000003a                                   : locale.cpp.obj (.text:_ZNSt3__214__num_put_base18__identify_paddingEPcS1_RKNS_8ios_baseE)
                  0001b2d2    0000003a     Can.obj (.text:_ZNSt3__216allocator_traitsINS_9allocatorINS_11__tree_nodeINS_12__value_typeIi12CanMessage_tEEPvEEEEE9constructINS_4pairIKiS4_EEJRKNS_21piecewise_construct_tENS_5tupleIJOiEEENSH_IJEEEEEEvRS8_PT_DpOT0_)
                  0001b30c    0000003a     Can.obj (.text:_ZNSt3__24pairIKi12CanMessage_tEC1IJOiEJEJLj0EEJEEENS_21piecewise_construct_tERNS_5tupleIJDpT_EEERNS7_IJDpT0_EEENS_15__tuple_indicesIJXT1_EEEENSG_IJXT2_EEEE)
                  0001b346    00000002     --HOLE-- [fill = 0]
                  0001b348    00000038     rtsv7M4_T_le_v4SPD16_eabi.lib : locale.cpp.obj (.text:_ZNKSt3__25ctypeIcE10do_tolowerEPcPKc)
                  0001b380    00000038                                   : locale.cpp.obj (.text:_ZNKSt3__25ctypeIcE10do_toupperEPcPKc)
                  0001b3b8    00000038                                   : locale.cpp.obj (.text:_ZNKSt3__25ctypeIwE10do_tolowerEPwPKw)
                  0001b3f0    00000038                                   : locale.cpp.obj (.text:_ZNKSt3__25ctypeIwE10do_toupperEPwPKw)
                  0001b428    00000038                                   : locale.cpp.obj (.text:_ZNKSt3__27collateIcE10do_compareEPKcS3_S3_S3_)
                  0001b460    00000038                                   : locale.cpp.obj (.text:_ZNKSt3__28time_getIcNS_19istreambuf_iteratorIcNS_11char_traitsIcEEEEE10__get_yearERiRS4_S4_RjRKNS_5ctypeIcEE)
                  0001b498    00000038                                   : locale.cpp.obj (.text:_ZNKSt3__28time_getIwNS_19istreambuf_iteratorIwNS_11char_traitsIwEEEEE10__get_yearERiRS4_S4_RjRKNS_5ctypeIwEE)
                  0001b4d0    00000038                                   : ios.cpp.obj (.text:_ZNSt3__214basic_iostreamIcNS_11char_traitsIcEEED2Ev)
                  0001b508    00000038     Can.obj (.text:_ZNSt3__216allocator_traitsINS_9allocatorINS_11__tree_nodeINS_12__value_typeIi12CanMessage_tEEPvEEEEE11__constructINS_4pairIKiS4_EEJRKNS_21piecewise_construct_tENS_5tupleIJOiEEENSH_IJEEEEEEvNS_17integral_constantIbLb1EEERS8_PT_DpOT0_)
                  0001b540    00000038     Can.obj (.text:_ZNSt3__23mapIi12CanMessage_tNS_4lessIiEENS_9allocatorINS_4pairIKiS1_EEEEE6insertINS5_IiS1_EEvEENS5_INS_14__map_iteratorINS_15__tree_iteratorINS_12__value_typeIiS1_EEPNS_11__tree_nodeISF_PvEEiEEEEbEEOT_)
                  0001b578    00000038     Can.obj (.text:_ZNSt3__24pairIKi12CanMessage_tEC1IJOiEJEEENS_21piecewise_construct_tENS_5tupleIJDpT_EEENS7_IJDpT0_EEE)
                  0001b5b0    00000038     rtsv7M4_T_le_v4SPD16_eabi.lib : locale.cpp.obj (.text:_ZNSt3__26__clocEv)
                  0001b5e8    00000038     Handler.obj (.text:_ZNSt3__26vectorIhNS_9allocatorIhEEE18__construct_at_endIPKhEENS_9enable_ifIXsr3std3__221__is_forward_iteratorIT_EE5valueEvE4typeES8_S8_j)
                  0001b620    00000038     rtsv7M4_T_le_v4SPD16_eabi.lib : ios.cpp.obj (.text:_ZNSt3__28ios_baseD1Ev)
                  0001b658    00000038                                   : locale.cpp.obj (.text:_ZNSt3__28numpunctIcEC1Ej)
                  0001b690    00000038                                   : locale.cpp.obj (.text:_ZNSt3__28numpunctIwEC1Ej)
                  0001b6c8    00000038                                   : trgmsg.c.obj (.text:__TI_writemsg)
                  0001b700    00000038                                   : sscanf.c.obj (.text:sscanf)
                  0001b738    00000038     sysbios.aem4f : BIOS.obj (.text:ti_sysbios_family_arm_m3_Hwi_excNoIsr__I)
                  0001b770    00000038     empty_pem4f.oem4f (.text:ti_sysbios_knl_Clock_doTick__I)
                  0001b7a8    00000038     sysbios.aem4f : BIOS.obj (.text:ti_sysbios_knl_Task_processVitalTaskFlag__I)
                  0001b7e0    00000038     ti.targets.arm.rtsarm.aem4f : SysMin.oem4f (.text:xdc_runtime_SysMin_putch__E)
                  0001b818    00000038                                 : System.oem4f (.text:xdc_runtime_System_atexit__E)
                  0001b850    00000036     ArgumentArray.obj (.text:_ZNSt3__214__split_bufferINS_5tupleIJNS_12basic_stringIcNS_11char_traitsIcEENS_9allocatorIcEEEE8ArgumentEEERNS5_IS9_EEE17__destruct_at_endEPS9_NS_17integral_constantIbLb0EEE)
                  0001b886    00000036     Can.obj (.text:_ZNSt3__214__split_bufferIP12CanMessage_tNS_9allocatorIS2_EEE17__destruct_at_endEPS2_NS_17integral_constantIbLb0EEE)
                  0001b8bc    00000036     Can.obj (.text:_ZNSt3__214__split_bufferIP12CanMessage_tRNS_9allocatorIS2_EEE17__destruct_at_endEPS2_NS_17integral_constantIbLb0EEE)
                  0001b8f2    00000036     NetReceive.obj (.text:_ZNSt3__214__split_bufferIP19messageIncomingInfoNS_9allocatorIS2_EEE17__destruct_at_endEPS2_NS_17integral_constantIbLb0EEE)
                  0001b928    00000036     NetReceive.obj (.text:_ZNSt3__214__split_bufferIP19messageIncomingInfoRNS_9allocatorIS2_EEE17__destruct_at_endEPS2_NS_17integral_constantIbLb0EEE)
                  0001b95e    00000036     ArgumentArray.obj (.text:_ZNSt3__214__split_bufferItRNS_9allocatorItEEE17__destruct_at_endEPtNS_17integral_constantIbLb0EEE)
                  0001b994    00000036     Can.obj (.text:_ZNSt3__215__move_backwardIP12CanMessage_tS2_EENS_9enable_ifIXaasr3std3__27is_sameINS_12remove_constIT_E4typeET0_EE5valuesr3std3__228is_trivially_copy_assignableIS8_EE5valueEPS8_E4typeEPS5_SC_S9_)
                  0001b9ca    00000036     NetReceive.obj (.text:_ZNSt3__215__move_backwardIP19messageIncomingInfoS2_EENS_9enable_ifIXaasr3std3__27is_sameINS_12remove_constIT_E4typeET0_EE5valuesr3std3__228is_trivially_copy_assignableIS8_EE5valueEPS8_E4typeEPS5_SC_S9_)
                  0001ba00    00000036     Codec.obj (.text:_ZNSt3__215basic_stringbufIcNS_11char_traitsIcEENS_9allocatorIcEEE7seekposENS_4fposIiEEj)
                  0001ba36    00000036     Can.obj (.text:_ZNSt3__216__deque_iteratorI12CanMessage_tPS1_RS1_PS2_iLi0EEppEv)
                  0001ba6c    00000036     NetReceive.obj (.text:_ZNSt3__216__deque_iteratorI19messageIncomingInfoPS1_RS1_PS2_iLi0EEppEv)
                  0001baa2    00000036     ArgumentArray.obj (.text:_ZNSt3__26__moveIPNS_5tupleIJNS_12basic_stringIcNS_11char_traitsIcEENS_9allocatorIcEEEE8ArgumentEEESA_EET0_T_SC_SB_)
                  0001bad8    00000036     rtsv7M4_T_le_v4SPD16_eabi.lib : strncpy.c.obj (.text:strncpy)
                  0001bb0e    00000036                                   : vasprintf.c.obj (.text:vasprintf)
                  0001bb44    00000034     driverlib.lib : interrupt.obj (.text:IntRegister)
                  0001bb78    00000034                   : sysctl.obj (.text:SysCtlPeripheralEnable)
                  0001bbac    00000034     rtsv7M4_T_le_v4SPD16_eabi.lib : locale.cpp.obj (.text:_ZNKSt3__28time_getIcNS_19istreambuf_iteratorIcNS_11char_traitsIcEEEEE11do_get_timeES4_S4_RNS_8ios_baseERjP2tm)
                  0001bbe0    00000034                                   : string.cpp.obj (.text:_ZNSt3__212basic_stringIcNS_11char_traitsIcEENS_9allocatorIcEEE3endEv)
                  0001bc14    00000034     Can.obj (.text:_ZNSt3__26__treeINS_12__value_typeIi12CanMessage_tEENS_19__map_value_compareIiS3_NS_4lessIiEELb1EEENS_9allocatorIS3_EEEC1ERKS7_)
                  0001bc48    00000034     rtsv7M4_T_le_v4SPD16_eabi.lib : fopen.c.obj (.text:__TI_cleanup)
                  0001bc7c    00000034                                   : trgmsg.c.obj (.text:__TI_readmsg)
                  0001bcb0    00000034                                   : dtor_list.c.obj (.text:__aeabi_atexit)
                  0001bce4    00000004                                   : locale.cpp.obj (.text:_ZNKSt3__28numpunctIcE16do_thousands_sepEv)
                  0001bce8    00000034     sysbios.aem4f : BIOS.obj (.text:ti_sysbios_family_arm_m3_Hwi_excNmi__I)
                  0001bd1c    00000004     rtsv7M4_T_le_v4SPD16_eabi.lib : locale.cpp.obj (.text:_ZNKSt3__28numpunctIwE16do_decimal_pointEv)
                  0001bd20    00000034     sysbios.aem4f : BIOS.obj (.text:ti_sysbios_hal_Hwi_checkStack)
                  0001bd54    00000034     empty_pem4f.oem4f (.text:ti_sysbios_knl_Semaphore_construct)
                  0001bd88    00000034     ti.uia.loggers.aem4f : LoggerStopMode.oem4f (.text:ti_uia_loggers_LoggerStopMode_reset__E)
                  0001bdbc    00000034     ti.targets.arm.rtsarm.aem4f : Core-label.oem4f (.text:xdc_runtime_Core_assignLabel__I)
                  0001bdf0    00000033                                 : Text.oem4f (.text:xdc_runtime_Text_printVisFxn__I)
                  0001be23    00000001     --HOLE-- [fill = 0]
                  0001be24    00000032     rtsv7M4_T_le_v4SPD16_eabi.lib : locale.cpp.obj (.text:_ZNKSt3__27collateIwE7do_hashEPKwS3_)
                  0001be56    00000032                                   : locale.cpp.obj (.text:_ZNKSt3__28time_getIcNS_19istreambuf_iteratorIcNS_11char_traitsIcEEEEE13__get_12_hourERiRS4_S4_RjRKNS_5ctypeIcEE)
                  0001be88    00000032                                   : locale.cpp.obj (.text:_ZNKSt3__28time_getIcNS_19istreambuf_iteratorIcNS_11char_traitsIcEEEEE9__get_dayERiRS4_S4_RjRKNS_5ctypeIcEE)
                  0001beba    00000032                                   : locale.cpp.obj (.text:_ZNKSt3__28time_getIwNS_19istreambuf_iteratorIwNS_11char_traitsIwEEEEE13__get_12_hourERiRS4_S4_RjRKNS_5ctypeIwEE)
                  0001beec    00000032                                   : locale.cpp.obj (.text:_ZNKSt3__28time_getIwNS_19istreambuf_iteratorIwNS_11char_traitsIwEEEEE9__get_dayERiRS4_S4_RjRKNS_5ctypeIwEE)
                  0001bf1e    00000032     ArgumentArray.obj (.text:_ZNSt3__212__tuple_implINS_15__tuple_indicesIJLj0ELj1EEEEJNS_12basic_stringIcNS_11char_traitsIcEENS_9allocatorIcEEEE8ArgumentEEC1IJLj0ELj1EEJS8_S9_EJEJEJRA1_KcRS9_EEENS1_IJXT_EEEENS_13__tuple_typesIJDpT0_EEENS1_IJXT1_EEEENSH_IJDpT2_EEEDpOT3_)
                  0001bf50    00000032     ArgumentArray.obj (.text:_ZNSt3__215__move_backwardIPNS_5tupleIJNS_12basic_stringIcNS_11char_traitsIcEENS_9allocatorIcEEEE8ArgumentEEESA_EET0_T_SC_SB_)
                  0001bf82    00000032     Can.obj (.text:_ZNSt3__25tupleIJOiEEC1IJiELb0ELb0EEEDpOT_)
                  0001bfb4    00000032     Can.obj (.text:_ZNSt3__26__moveIP12CanMessage_tS2_EENS_9enable_ifIXaasr3std3__27is_sameINS_12remove_constIT_E4typeET0_EE5valuesr3std3__228is_trivially_copy_assignableIS8_EE5valueEPS8_E4typeEPS5_SC_S9_)
                  0001bfe6    00000032     NetReceive.obj (.text:_ZNSt3__26__moveIP19messageIncomingInfoS2_EENS_9enable_ifIXaasr3std3__27is_sameINS_12remove_constIT_E4typeET0_EE5valuesr3std3__228is_trivially_copy_assignableIS8_EE5valueEPS8_E4typeEPS5_SC_S9_)
                  0001c018    00000032     sysbios.aem4f : BIOS.obj (.text:ti_sysbios_hal_Hwi_initStack)
                  0001c04a    00000030     Argument.obj (.text:_Z13swapByteOrderRj)
                  0001c07a    00000002     --HOLE-- [fill = 0]
                  0001c07c    00000030     Can.obj (.text:_ZN3CanC1Ev)
                  0001c0ac    00000030     rtsv7M4_T_le_v4SPD16_eabi.lib : locale.cpp.obj (.text:_ZNKSt3__27collateIcE7do_hashEPKcS3_)
                  0001c0dc    00000030                                   : locale.cpp.obj (.text:_ZNKSt3__28time_getIcNS_19istreambuf_iteratorIcNS_11char_traitsIcEEEEE11__get_monthERiRS4_S4_RjRKNS_5ctypeIcEE)
                  0001c10c    00000030                                   : locale.cpp.obj (.text:_ZNKSt3__28time_getIcNS_19istreambuf_iteratorIcNS_11char_traitsIcEEEEE18__get_day_year_numERiRS4_S4_RjRKNS_5ctypeIcEE)
                  0001c13c    00000030                                   : locale.cpp.obj (.text:_ZNKSt3__28time_getIwNS_19istreambuf_iteratorIwNS_11char_traitsIwEEEEE11__get_monthERiRS4_S4_RjRKNS_5ctypeIwEE)
                  0001c16c    00000030                                   : locale.cpp.obj (.text:_ZNKSt3__28time_getIwNS_19istreambuf_iteratorIwNS_11char_traitsIwEEEEE18__get_day_year_numERiRS4_S4_RjRKNS_5ctypeIwEE)
                  0001c19c    00000030                                   : locale.cpp.obj (.text:_ZNSt3__219ostreambuf_iteratorIcNS_11char_traitsIcEEEaSEc)
                  0001c1cc    00000030                                   : locale.cpp.obj (.text:_ZNSt3__219ostreambuf_iteratorIwNS_11char_traitsIwEEEaSEw)
                  0001c1fc    00000030     Can.obj (.text:_ZNSt3__222__tree_node_destructorINS_9allocatorINS_11__tree_nodeINS_12__value_typeIi12CanMessage_tEEPvEEEEEclEPS7_)
                  0001c22c    00000030     rtsv7M4_T_le_v4SPD16_eabi.lib : locale.cpp.obj (.text:_ZNSt3__26locale8__globalEv)
                  0001c25c    00000030     Can.obj (.text:_ZNSt3__29allocatorI12CanMessage_tE9constructIS1_JRKS1_EEEvPT_DpOT0_)
                  0001c28c    00000030     NetReceive.obj (.text:_ZNSt3__29allocatorI19messageIncomingInfoE9constructIS1_JRKS1_EEEvPT_DpOT0_)
                  0001c2bc    00000030     Can.obj (.text:_ZNSt3__29allocatorINS_11__tree_nodeINS_12__value_typeIi12CanMessage_tEEPvEEE9constructINS_4pairIKiS3_EEJNS9_IiS3_EEEEEvPT_DpOT0_)
                  0001c2ec    00000030     ArgumentArray.obj (.text:_ZNSt3__29allocatorINS_5tupleIJNS_12basic_stringIcNS_11char_traitsIcEENS0_IcEEEE8ArgumentEEEE9constructIS8_JS8_EEEvPT_DpOT0_)
                  0001c31c    00000030     rtsv7M4_T_le_v4SPD16_eabi.lib : snprintf.c.obj (.text:_outs)
                  0001c34c    00000030                                   : vsnprintf.c.obj (.text:_outs)
                  0001c37c    00000030                                   : getdevice.c.obj (.text:finddevice)
                  0001c3ac    00000030     empty_pem4f.oem4f (.text:ti_sysbios_BIOS_atExitFunc__I)
                  0001c3dc    00000030     empty_pem4f.oem4f (.text:ti_sysbios_BIOS_errorRaiseHook__I)
                  0001c40c    00000030     empty_pem4f.oem4f (.text:ti_sysbios_BIOS_rtsLock__I)
                  0001c43c    00000004     rtsv7M4_T_le_v4SPD16_eabi.lib : locale.cpp.obj (.text:_ZNKSt3__28numpunctIwE16do_thousands_sepEv)
                  0001c440    00000030     sysbios.aem4f : BIOS.obj (.text:ti_sysbios_family_arm_lm4_Timer_stop__E)
                  0001c470    00000030     empty_pem4f.oem4f (.text:ti_sysbios_family_arm_m3_Hwi_Object__get__S)
                  0001c4a0    00000030     sysbios.aem4f : BIOS.obj (.text:ti_sysbios_family_arm_m3_TaskSupport_start__E)
                  0001c4d0    00000030     empty_pem4f.oem4f (.text:ti_sysbios_heaps_HeapMem_Object__get__S)
                  0001c500    00000030     empty_pem4f.oem4f (.text:ti_sysbios_knl_Queue_construct)
                  0001c530    00000030     sysbios.aem4f : BIOS.obj (.text:ti_sysbios_knl_Semaphore_pendTimeout__I)
                  0001c560    00000030     empty_pem4f.oem4f (.text:ti_sysbios_knl_Swi_Object__get__S)
                  0001c590    00000030     sysbios.aem4f : BIOS.obj (.text:ti_sysbios_knl_Task_unblockI__E)
                  0001c5c0    00000030                   : BIOS.obj (.text:ti_sysbios_utils_Load_updateCurrentThreadTime__E)
                  0001c5f0    00000030     ti.targets.arm.rtsarm.aem4f : SysMin.oem4f (.text:xdc_runtime_SysMin_abort__E)
                  0001c620    00000030                                 : System.oem4f (.text:xdc_runtime_System_processAtExit__E)
                  0001c650    0000002e     rtsv7M4_T_le_v4SPD16_eabi.lib : locale.cpp.obj (.text:_ZNKSt3__25ctypeIwE5do_isEPKwS3_Ph)
                  0001c67e    0000002e                                   : locale.cpp.obj (.text:_ZNKSt3__27codecvtIwciE11do_encodingEv)
                  0001c6ac    0000002e                                   : locale.cpp.obj (.text:_ZNKSt3__28time_getIcNS_19istreambuf_iteratorIcNS_11char_traitsIcEEEEE10__get_hourERiRS4_S4_RjRKNS_5ctypeIcEE)
                  0001c6da    0000002e                                   : locale.cpp.obj (.text:_ZNKSt3__28time_getIcNS_19istreambuf_iteratorIcNS_11char_traitsIcEEEEE12__get_minuteERiRS4_S4_RjRKNS_5ctypeIcEE)
                  0001c708    0000002e                                   : locale.cpp.obj (.text:_ZNKSt3__28time_getIcNS_19istreambuf_iteratorIcNS_11char_traitsIcEEEEE12__get_secondERiRS4_S4_RjRKNS_5ctypeIcEE)
                  0001c736    0000002e                                   : locale.cpp.obj (.text:_ZNKSt3__28time_getIcNS_19istreambuf_iteratorIcNS_11char_traitsIcEEEEE13__get_weekdayERiRS4_S4_RjRKNS_5ctypeIcEE)
                  0001c764    0000002e                                   : locale.cpp.obj (.text:_ZNKSt3__28time_getIwNS_19istreambuf_iteratorIwNS_11char_traitsIwEEEEE10__get_hourERiRS4_S4_RjRKNS_5ctypeIwEE)
                  0001c792    0000002e                                   : locale.cpp.obj (.text:_ZNKSt3__28time_getIwNS_19istreambuf_iteratorIwNS_11char_traitsIwEEEEE12__get_minuteERiRS4_S4_RjRKNS_5ctypeIwEE)
                  0001c7c0    0000002e                                   : locale.cpp.obj (.text:_ZNKSt3__28time_getIwNS_19istreambuf_iteratorIwNS_11char_traitsIwEEEEE12__get_secondERiRS4_S4_RjRKNS_5ctypeIwEE)
                  0001c7ee    0000002e                                   : locale.cpp.obj (.text:_ZNKSt3__28time_getIwNS_19istreambuf_iteratorIwNS_11char_traitsIwEEEEE13__get_weekdayERiRS4_S4_RjRKNS_5ctypeIwEE)
                  0001c81c    0000002e     Can.obj (.text:_ZNSt3__211__tree_nextIPNS_16__tree_node_baseIPvEEEET_S5_)
                  0001c84a    0000002e     rtsv7M4_T_le_v4SPD16_eabi.lib : string.cpp.obj (.text:_ZNSt3__212basic_stringIcNS_11char_traitsIcEENS_9allocatorIcEEEaSERKS5_)
                  0001c878    0000002e     ArgumentArray.obj (.text:_ZNSt3__213__vector_baseINS_5tupleIJNS_12basic_stringIcNS_11char_traitsIcEENS_9allocatorIcEEEE8ArgumentEEENS5_IS9_EEED1Ev)
                  0001c8a6    0000002e     Handler.obj (.text:_ZNSt3__213__vector_baseIhNS_9allocatorIhEEED1Ev)
                  0001c8d4    0000002e     Codec.obj (.text:_ZNSt3__213__vector_baseItNS_9allocatorItEEED1Ev)
                  0001c902    0000002e     ArgumentArray.obj (.text:_ZNSt3__214__split_bufferINS_5tupleIJNS_12basic_stringIcNS_11char_traitsIcEENS_9allocatorIcEEEE8ArgumentEEERNS5_IS9_EEED1Ev)
                  0001c930    0000002e     Can.obj (.text:_ZNSt3__214__split_bufferIP12CanMessage_tNS_9allocatorIS2_EEED1Ev)
                  0001c95e    0000002e     Can.obj (.text:_ZNSt3__214__split_bufferIP12CanMessage_tRNS_9allocatorIS2_EEED1Ev)
                  0001c98c    0000002e     NetReceive.obj (.text:_ZNSt3__214__split_bufferIP19messageIncomingInfoNS_9allocatorIS2_EEED1Ev)
                  0001c9ba    0000002e     NetReceive.obj (.text:_ZNSt3__214__split_bufferIP19messageIncomingInfoRNS_9allocatorIS2_EEED1Ev)
                  0001c9e8    0000002e     rtsv7M4_T_le_v4SPD16_eabi.lib : locale.cpp.obj (.text:_ZNSt3__214__split_bufferIPNS_6locale5facetERNS_15__sso_allocatorIS3_Lj28EEEED1Ev)
                  0001ca16    0000002e     ArgumentArray.obj (.text:_ZNSt3__214__split_bufferItRNS_9allocatorItEEED1Ev)
                  0001ca44    0000002e     Can.obj (.text:_ZNSt3__29allocatorIP12CanMessage_tE9constructIS2_JRKS2_EEEvPT_DpOT0_)
                  0001ca72    0000002e     Can.obj (.text:_ZNSt3__29allocatorIP12CanMessage_tE9constructIS2_JS2_EEEvPT_DpOT0_)
                  0001caa0    0000002e     NetReceive.obj (.text:_ZNSt3__29allocatorIP19messageIncomingInfoE9constructIS2_JRKS2_EEEvPT_DpOT0_)
                  0001cace    0000002e     NetReceive.obj (.text:_ZNSt3__29allocatorIP19messageIncomingInfoE9constructIS2_JS2_EEEvPT_DpOT0_)
                  0001cafc    0000002e     Handler.obj (.text:_ZNSt3__29allocatorIhE9constructIhJRKhEEEvPT_DpOT0_)
                  0001cb2a    0000002e     ArgumentArray.obj (.text:_ZNSt3__29allocatorItE9constructItJtEEEvPT_DpOT0_)
                  0001cb58    0000002e     rtsv7M4_T_le_v4SPD16_eabi.lib : none_mb.c.obj (.text:mbtowc)
                  0001cb86    0000002e                                   : i_tofd_t2.asm.obj (.text)
                  0001cbb4    0000002c     Can.obj (.text:_ZNSt3__210unique_ptrINS_11__tree_nodeINS_12__value_typeIi12CanMessage_tEEPvEENS_22__tree_node_destructorINS_9allocatorIS6_EEEEE5resetEPS6_)
                  0001cbe0    0000002c     Can.obj (.text:_ZNSt3__210unique_ptrIP12CanMessage_tNS_22__allocator_destructorINS_9allocatorIS1_EEEEE5resetES2_)
                  0001cc0c    0000002c     NetReceive.obj (.text:_ZNSt3__210unique_ptrIP19messageIncomingInfoNS_22__allocator_destructorINS_9allocatorIS1_EEEEE5resetES2_)
                  0001cc38    0000002c     rtsv7M4_T_le_v4SPD16_eabi.lib : string.cpp.obj (.text:_ZNSt3__212basic_stringIcNS_11char_traitsIcEENS_9allocatorIcEEEC1ERKS4_)
                  0001cc64    0000002c     Can.obj (.text:_ZNSt3__216__tree_next_iterIPNS_15__tree_end_nodeIPNS_16__tree_node_baseIPvEEEES5_EET_T0_)
                  0001cc90    0000002c     Handler.obj (.text:_ZNSt3__217__compressed_pairINS_12basic_stringIcNS_11char_traitsIcEENS_9allocatorIcEEE5__repES5_EC1IRKS5_EENS_12__second_tagEOT_)
                  0001ccbc    0000002c     Codec.obj (.text:_ZNSt3__218basic_stringstreamIcNS_11char_traitsIcEENS_9allocatorIcEEEC1Ej)
                  0001cce8    0000002c     rtsv7M4_T_le_v4SPD16_eabi.lib : locale.cpp.obj (.text:_ZNSt3__26locale7classicEv)
                  0001cd14    0000002c     Can.obj (.text:_ZNSt3__29allocatorINS_11__tree_nodeINS_12__value_typeIi12CanMessage_tEEPvEEE8allocateEjPKv)
                  0001cd40    0000002c     empty_pem4f.oem4f (.text:ti_sysbios_knl_Clock_Params__init__S)
                  0001cd6c    0000002c     empty_pem4f.oem4f (.text:ti_sysbios_knl_Task_Object__get__S)
                  0001cd98    0000002c     empty_pem4f.oem4f (.text:ti_sysbios_knl_Task_Params__init__S)
                  0001cdc4    00000004     rtsv7M4_T_le_v4SPD16_eabi.lib : locale.cpp.obj (.text:_ZNKSt3__28time_getIcNS_19istreambuf_iteratorIcNS_11char_traitsIcEEEEE13do_date_orderEv)
                  0001cdc8    0000002c     sysbios.aem4f : BIOS.obj (.text:ti_sysbios_knl_Task_restore__E)
                  0001cdf4    0000002c     empty_pem4f.oem4f (.text:ti_uia_loggers_LoggerStopMode_Object__get__S)
                  0001ce20    0000002c     rtsv7M4_T_le_v4SPD16_eabi.lib : unlink.c.obj (.text:unlink)
                  0001ce4c    0000002c     ti.targets.arm.rtsarm.aem4f : Text.oem4f (.text:xdc_runtime_Text_cordText__E)
                  0001ce78    0000002a     driverlib.lib : gpio.obj (.text:GPIODirModeSet)
                  0001cea2    0000002a                   : can.obj (.text:_CANDataRegRead)
                  0001cecc    0000002a     rtsv7M4_T_le_v4SPD16_eabi.lib : locale.cpp.obj (.text:_ZNKSt3__25ctypeIwE10do_scan_isEhPKwS3_)
                  0001cef6    0000002a                                   : locale.cpp.obj (.text:_ZNKSt3__25ctypeIwE11do_scan_notEhPKwS3_)
                  0001cf20    0000002a     Handler.obj (.text:_ZNSt3__212basic_stringIcNS_11char_traitsIcEENS_9allocatorIcEEEC1INS_11__wrap_iterIPhEEEET_SA_RKS4_)
                  0001cf4a    0000002a     Codec.obj (.text:_ZNSt3__212basic_stringIcNS_11char_traitsIcEENS_9allocatorIcEEEC1IPcEET_S8_RKS4_)
                  0001cf74    0000002a     ArgumentArray.obj (.text:_ZNSt3__213move_backwardIPNS_5tupleIJNS_12basic_stringIcNS_11char_traitsIcEENS_9allocatorIcEEEE8ArgumentEEESA_EET0_T_SC_SB_)
                  0001cf9e    0000002a     Can.obj (.text:_ZNSt3__213move_backwardIPP12CanMessage_tS3_EET0_T_S5_S4_)
                  0001cfc8    0000002a     NetReceive.obj (.text:_ZNSt3__213move_backwardIPP19messageIncomingInfoS3_EET0_T_S5_S4_)
                  0001cff2    0000002a     rtsv7M4_T_le_v4SPD16_eabi.lib : ios.cpp.obj (.text:_ZNSt3__215basic_streambufIcNS_11char_traitsIcEEE7seekposENS_4fposIiEEj)
                  0001d01c    0000002a     Can.obj (.text:_ZNSt3__217__compressed_pairIP12CanMessage_tNS_22__allocator_destructorINS_9allocatorIS1_EEEEEC1IRS2_S6_EEOT_OT0_)
                  0001d046    0000002a     NetReceive.obj (.text:_ZNSt3__217__compressed_pairIP19messageIncomingInfoNS_22__allocator_destructorINS_9allocatorIS1_EEEEEC1IRS2_S6_EEOT_OT0_)
                  0001d070    0000002a     Can.obj (.text:_ZNSt3__217__compressed_pairIPNS_11__tree_nodeINS_12__value_typeIi12CanMessage_tEEPvEENS_22__tree_node_destructorINS_9allocatorIS6_EEEEEC1IRS7_SB_EEOT_OT0_)
                  0001d09a    0000002a     Can.obj (.text:_ZNSt3__217__compressed_pairIPNS_11__tree_nodeINS_12__value_typeIi12CanMessage_tEEPvEENS_22__tree_node_destructorINS_9allocatorIS6_EEEEEC1IS7_SB_EEOT_OT0_)
                  0001d0c4    0000002a     ArgumentArray.obj (.text:_ZNSt3__217__compressed_pairIPNS_5tupleIJNS_12basic_stringIcNS_11char_traitsIcEENS_9allocatorIcEEEE8ArgumentEEERNS5_IS9_EEEC1IDnSC_EEOT_OT0_)
                  0001d0ee    0000002a     Can.obj (.text:_ZNSt3__217__compressed_pairIPP12CanMessage_tRNS_9allocatorIS2_EEEC1IDnS6_EEOT_OT0_)
                  0001d118    0000002a     NetReceive.obj (.text:_ZNSt3__217__compressed_pairIPP19messageIncomingInfoRNS_9allocatorIS2_EEEC1IDnS6_EEOT_OT0_)
                  0001d142    0000002a     ArgumentArray.obj (.text:_ZNSt3__217__compressed_pairIPtRNS_9allocatorItEEEC1IDnS4_EEOT_OT0_)
                  0001d16c    0000002a     ArgumentArray.obj (.text:_ZNSt3__24moveIPNS_5tupleIJNS_12basic_stringIcNS_11char_traitsIcEENS_9allocatorIcEEEE8ArgumentEEESA_EET0_T_SC_SB_)
                  0001d196    0000002a     Can.obj (.text:_ZNSt3__24moveIPP12CanMessage_tS3_EET0_T_S5_S4_)
                  0001d1c0    0000002a     NetReceive.obj (.text:_ZNSt3__24moveIPP19messageIncomingInfoS3_EET0_T_S5_S4_)
                  0001d1ea    0000002a     ArgumentArray.obj (.text:_ZNSt3__24swapIPNS_5tupleIJNS_12basic_stringIcNS_11char_traitsIcEENS_9allocatorIcEEEE8ArgumentEEEEENS_9enable_ifIXaasr3std3__221is_move_constructibleIT_EE5valuesr3std3__218is_move_assignableISC_EE5valueEvE4typeERSC_SF_)
                  0001d214    0000002a     Can.obj (.text:_ZNSt3__24swapIPP12CanMessage_tEENS_9enable_ifIXaasr3std3__221is_move_constructibleIT_EE5valuesr3std3__218is_move_assignableIS5_EE5valueEvE4typeERS5_S8_)
                  0001d23e    0000002a     NetReceive.obj (.text:_ZNSt3__24swapIPP19messageIncomingInfoEENS_9enable_ifIXaasr3std3__221is_move_constructibleIT_EE5valuesr3std3__218is_move_assignableIS5_EE5valueEvE4typeERS5_S8_)
                  0001d268    0000002a     ArgumentArray.obj (.text:_ZNSt3__24swapIPtEENS_9enable_ifIXaasr3std3__221is_move_constructibleIT_EE5valuesr3std3__218is_move_assignableIS3_EE5valueEvE4typeERS3_S6_)
                  0001d292    0000002a     ti.targets.arm.rtsarm.aem4f : System.oem4f (.text:xdc_runtime_System_putchar__I)
                  0001d2bc    00000028     ArgumentArray.obj (.text:_ZNSt3__213__vector_baseINS_5tupleIJNS_12basic_stringIcNS_11char_traitsIcEENS_9allocatorIcEEEE8ArgumentEEENS5_IS9_EEEC1Ev)
                  0001d2e4    00000028     Handler.obj (.text:_ZNSt3__213__vector_baseIhNS_9allocatorIhEEEC1Ev)
                  0001d30c    00000028     Codec.obj (.text:_ZNSt3__213__vector_baseItNS_9allocatorItEEEC1Ev)
                  0001d334    00000028     Can.obj (.text:_ZNSt3__214__split_bufferIP12CanMessage_tNS_9allocatorIS2_EEEC1Ev)
                  0001d35c    00000028     NetReceive.obj (.text:_ZNSt3__214__split_bufferIP19messageIncomingInfoNS_9allocatorIS2_EEEC1Ev)
                  0001d384    00000028     Can.obj (.text:_ZNSt3__217__compressed_pairIjNS_19__map_value_compareIiNS_12__value_typeIi12CanMessage_tEENS_4lessIiEELb1EEEEC1IiRKS7_EEOT_OT0_)
                  0001d3ac    00000028     Can.obj (.text:_ZNSt3__23mapIi12CanMessage_tNS_4lessIiEENS_9allocatorINS_4pairIKiS1_EEEEE5eraseENS_14__map_iteratorINS_15__tree_iteratorINS_12__value_typeIiS1_EEPNS_11__tree_nodeISD_PvEEiEEEE)
                  0001d3d4    00000028     Can.obj (.text:_ZNSt3__24pairIKi12CanMessage_tEC1IiS2_Lb0EEEONS0_IT_T0_EE)
                  0001d3fc    00000028     Can.obj (.text:_ZNSt3__24pairIi12CanMessage_tEC1IRtRS1_Lb0EEEOT_OT0_)
                  0001d424    00000028     rtsv7M4_T_le_v4SPD16_eabi.lib : locale.cpp.obj (.text:_ZNSt3__26vectorIPNS_6locale5facetENS_15__sso_allocatorIS3_Lj28EEEEC1Ej)
                  0001d44c    00000028     Can.obj (.text:_ZNSt3__29allocatorI12CanMessage_tE8allocateEjPKv)
                  0001d474    00000028     NetReceive.obj (.text:_ZNSt3__29allocatorI19messageIncomingInfoE8allocateEjPKv)
                  0001d49c    00000028     ArgumentArray.obj (.text:_ZNSt3__29allocatorINS_5tupleIJNS_12basic_stringIcNS_11char_traitsIcEENS0_IcEEEE8ArgumentEEEE8allocateEjPKv)
                  0001d4c4    00000028     Can.obj (.text:_ZNSt3__29allocatorIP12CanMessage_tE8allocateEjPKv)
                  0001d4ec    00000028     NetReceive.obj (.text:_ZNSt3__29allocatorIP19messageIncomingInfoE8allocateEjPKv)
                  0001d514    00000028     main.obj (.text:_ZNSt3__29allocatorIcE8allocateEjPKv)
                  0001d53c    00000028     Handler.obj (.text:_ZNSt3__29allocatorIhE8allocateEjPKv)
                  0001d564    00000028     ArgumentArray.obj (.text:_ZNSt3__29allocatorItE8allocateEjPKv)
                  0001d58c    00000028     empty_pem4f.oem4f (.text:free)
                  0001d5b4    00000028     rtsv7M4_T_le_v4SPD16_eabi.lib : lseek.c.obj (.text:lseek)
                  0001d5dc    00000028                                   : memmov.c.obj (.text:memmove)
                  0001d604    00000028     empty_pem4f.oem4f (.text:ti_sysbios_gates_GateMutex_Object__delete__S)
                  0001d62c    00000004     rtsv7M4_T_le_v4SPD16_eabi.lib : locale.cpp.obj (.text:_ZNKSt3__28time_getIwNS_19istreambuf_iteratorIwNS_11char_traitsIwEEEEE13do_date_orderEv)
                  0001d630    00000028     sysbios.aem4f : BIOS.obj (.text:ti_sysbios_knl_Swi_Module_startup__E)
                  0001d658    00000028     rtsv7M4_T_le_v4SPD16_eabi.lib : write.c.obj (.text:write)
                  0001d680    00000028     empty_pem4f.oem4f (.text:xdc_runtime_System_aprintf__E)
                  0001d6a8    00000028     empty_pem4f.oem4f (.text:xdc_runtime_System_printf__E)
                  0001d6d0    00000026     Can.obj (.text:_ZN12CanMessage_tC1EOS_)
                  0001d6f6    00000026     Can.obj (.text:_ZN12CanMessage_tC1ERKS_)
                  0001d71c    00000026     ArgumentArray.obj (.text:_ZN13ArgumentArray10getByIndexEtR8Argument)
                  0001d742    00000026     isotp.obj (.text:_ZN30_INTERNAL_9_isotp_cpp_dbeeafe918isotp_ms_to_st_minEh)
                  0001d768    00000026     rtsv7M4_T_le_v4SPD16_eabi.lib : locale.cpp.obj (.text:_ZNKSt3__28numpunctIcE12do_falsenameEv)
                  0001d78e    00000026                                   : locale.cpp.obj (.text:_ZNKSt3__28time_getIcNS_19istreambuf_iteratorIcNS_11char_traitsIcEEEEE11__get_year4ERiRS4_S4_RjRKNS_5ctypeIcEE)
                  0001d7b4    00000026                                   : locale.cpp.obj (.text:_ZNKSt3__28time_getIwNS_19istreambuf_iteratorIwNS_11char_traitsIwEEEEE11__get_year4ERiRS4_S4_RjRKNS_5ctypeIwEE)
                  0001d7da    00000026     Can.obj (.text:_ZNSt3__210unique_ptrINS_11__tree_nodeINS_12__value_typeIi12CanMessage_tEEPvEENS_22__tree_node_destructorINS_9allocatorIS6_EEEEEC1EOSB_)
                  0001d800    00000026     rtsv7M4_T_le_v4SPD16_eabi.lib : string.cpp.obj (.text:_ZNSt3__212basic_stringIcNS_11char_traitsIcEENS_9allocatorIcEEE10__set_sizeEj)
                  0001d826    00000026                                   : string.cpp.obj (.text:_ZNSt3__212basic_stringIcNS_11char_traitsIcEENS_9allocatorIcEEEixEj)
                  0001d84c    00000026     Can.obj (.text:_ZNSt3__24pairINS_14__map_iteratorINS_15__tree_iteratorINS_12__value_typeIi12CanMessage_tEEPNS_11__tree_nodeIS5_PvEEiEEEEbEC1ISA_bLb0EEEONS0_IT_T0_EE)
                  0001d872    00000026     rtsv7M4_T_le_v4SPD16_eabi.lib : ios.cpp.obj (.text:_ZNSt3__28ios_base16__call_callbacksENS0_5eventE)
                  0001d898    00000026                                   : none_mb.c.obj (.text:mbrtowc)
                  0001d8be    00000026     sysbios.aem4f : m3_Hwi_asm.obj (.text:ti_sysbios_family_arm_m3_Hwi_pendSV__I)
                  0001d8e4    00000026     ti.targets.arm.rtsarm.aem4f : System.oem4f (.text:xdc_runtime_System_avprintf__E)
                  0001d90a    00000024     driverlib.lib : can.obj (.text:_CANDataRegWrite)
                  0001d92e    00000002     --HOLE-- [fill = 0]
                  0001d930    00000024     isotp_user.obj (.text:_Z12SysTickbeginv)
                  0001d954    00000024     rtsv7M4_T_le_v4SPD16_eabi.lib : locale.cpp.obj (.text:_ZNKSt3__25ctypeIcE10do_tolowerEc)
                  0001d978    00000024                                   : locale.cpp.obj (.text:_ZNKSt3__25ctypeIcE10do_toupperEc)
                  0001d99c    00000024                                   : locale.cpp.obj (.text:_ZNKSt3__25ctypeIwE10do_tolowerEw)
                  0001d9c0    00000024                                   : locale.cpp.obj (.text:_ZNKSt3__25ctypeIwE9do_narrowEPKwS3_cPc)
                  0001d9e4    00000024     ArgumentArray.obj (.text:_ZNKSt3__26vectorINS_5tupleIJNS_12basic_stringIcNS_11char_traitsIcEENS_9allocatorIcEEEE8ArgumentEEENS5_IS9_EEE8max_sizeEv)
                  0001da08    00000024     Handler.obj (.text:_ZNKSt3__26vectorIhNS_9allocatorIhEEE8max_sizeEv)
                  0001da2c    00000024     ArgumentArray.obj (.text:_ZNKSt3__26vectorItNS_9allocatorItEEE8max_sizeEv)
                  0001da50    00000024     rtsv7M4_T_le_v4SPD16_eabi.lib : string.cpp.obj (.text:_ZNSt3__212basic_stringIcNS_11char_traitsIcEENS_9allocatorIcEEEC1EOS5_)
                  0001da74    00000024                                   : ios.cpp.obj (.text:_ZNSt3__215basic_streambufIcNS_11char_traitsIcEEE5uflowEv)
                  0001da98    00000024                                   : ios.cpp.obj (.text:_ZNSt3__215basic_streambufIcNS_11char_traitsIcEEEC1Ev)
                  0001dabc    00000024     Can.obj (.text:_ZNSt3__216allocator_traitsINS_9allocatorI12CanMessage_tEEE11__constructIS2_JRKS2_EEEvNS_17integral_constantIbLb1EEERS3_PT_DpOT0_)
                  0001dae0    00000024     Can.obj (.text:_ZNSt3__216allocator_traitsINS_9allocatorI12CanMessage_tEEE9constructIS2_JRKS2_EEEvRS3_PT_DpOT0_)
                  0001db04    00000024     NetReceive.obj (.text:_ZNSt3__216allocator_traitsINS_9allocatorI19messageIncomingInfoEEE11__constructIS2_JRKS2_EEEvNS_17integral_constantIbLb1EEERS3_PT_DpOT0_)
                  0001db28    00000024     NetReceive.obj (.text:_ZNSt3__216allocator_traitsINS_9allocatorI19messageIncomingInfoEEE9constructIS2_JRKS2_EEEvRS3_PT_DpOT0_)
                  0001db4c    00000024     Can.obj (.text:_ZNSt3__216allocator_traitsINS_9allocatorINS_11__tree_nodeINS_12__value_typeIi12CanMessage_tEEPvEEEEE11__constructINS_4pairIKiS4_EEJNSB_IiS4_EEEEEvNS_17integral_constantIbLb1EEERS8_PT_DpOT0_)
                  0001db70    00000024     Can.obj (.text:_ZNSt3__216allocator_traitsINS_9allocatorINS_11__tree_nodeINS_12__value_typeIi12CanMessage_tEEPvEEEEE9constructINS_4pairIKiS4_EEJNSB_IiS4_EEEEEvRS8_PT_DpOT0_)
                  0001db94    00000024     ArgumentArray.obj (.text:_ZNSt3__216allocator_traitsINS_9allocatorINS_5tupleIJNS_12basic_stringIcNS_11char_traitsIcEENS1_IcEEEE8ArgumentEEEEEE11__constructIS9_JS9_EEEvNS_17integral_constantIbLb1EEERSA_PT_DpOT0_)
                  0001dbb8    00000024     ArgumentArray.obj (.text:_ZNSt3__216allocator_traitsINS_9allocatorINS_5tupleIJNS_12basic_stringIcNS_11char_traitsIcEENS1_IcEEEE8ArgumentEEEEEE9constructIS9_JS9_EEEvRSA_PT_DpOT0_)
                  0001dbdc    00000024     Can.obj (.text:_ZNSt3__216allocator_traitsINS_9allocatorIP12CanMessage_tEEE11__constructIS3_JRKS3_EEEvNS_17integral_constantIbLb1EEERS4_PT_DpOT0_)
                  0001dc00    00000024     Can.obj (.text:_ZNSt3__216allocator_traitsINS_9allocatorIP12CanMessage_tEEE11__constructIS3_JS3_EEEvNS_17integral_constantIbLb1EEERS4_PT_DpOT0_)
                  0001dc24    00000024     Can.obj (.text:_ZNSt3__216allocator_traitsINS_9allocatorIP12CanMessage_tEEE9constructIS3_JRKS3_EEEvRS4_PT_DpOT0_)
                  0001dc48    00000024     Can.obj (.text:_ZNSt3__216allocator_traitsINS_9allocatorIP12CanMessage_tEEE9constructIS3_JS3_EEEvRS4_PT_DpOT0_)
                  0001dc6c    00000024     NetReceive.obj (.text:_ZNSt3__216allocator_traitsINS_9allocatorIP19messageIncomingInfoEEE11__constructIS3_JRKS3_EEEvNS_17integral_constantIbLb1EEERS4_PT_DpOT0_)
                  0001dc90    00000024     NetReceive.obj (.text:_ZNSt3__216allocator_traitsINS_9allocatorIP19messageIncomingInfoEEE11__constructIS3_JS3_EEEvNS_17integral_constantIbLb1EEERS4_PT_DpOT0_)
                  0001dcb4    00000024     NetReceive.obj (.text:_ZNSt3__216allocator_traitsINS_9allocatorIP19messageIncomingInfoEEE9constructIS3_JRKS3_EEEvRS4_PT_DpOT0_)
                  0001dcd8    00000024     NetReceive.obj (.text:_ZNSt3__216allocator_traitsINS_9allocatorIP19messageIncomingInfoEEE9constructIS3_JS3_EEEvRS4_PT_DpOT0_)
                  0001dcfc    00000024     Handler.obj (.text:_ZNSt3__216allocator_traitsINS_9allocatorIhEEE11__constructIhJRKhEEEvNS_17integral_constantIbLb1EEERS2_PT_DpOT0_)
                  0001dd20    00000024     Handler.obj (.text:_ZNSt3__216allocator_traitsINS_9allocatorIhEEE9constructIhJRKhEEEvRS2_PT_DpOT0_)
                  0001dd44    00000024     ArgumentArray.obj (.text:_ZNSt3__216allocator_traitsINS_9allocatorItEEE11__constructItJtEEEvNS_17integral_constantIbLb1EEERS2_PT_DpOT0_)
                  0001dd68    00000024     ArgumentArray.obj (.text:_ZNSt3__216allocator_traitsINS_9allocatorItEEE9constructItJtEEEvRS2_PT_DpOT0_)
                  0001dd8c    00000024     Codec.obj (.text:_ZNSt3__218basic_stringstreamIcNS_11char_traitsIcEENS_9allocatorIcEEED1Ev)
                  0001ddb0    00000024     Can.obj (.text:_ZNSt3__24pairINS_15__tree_iteratorINS_12__value_typeIi12CanMessage_tEEPNS_11__tree_nodeIS4_PvEEiEEbEC1IS9_RbLb0EEEOT_OT0_)
                  0001ddd4    00000024     rtsv7M4_T_le_v4SPD16_eabi.lib : locale.cpp.obj (.text:_ZNSt3__25ctypeIcEC1EPKhbj)
                  0001ddf8    00000024                                   : locale.cpp.obj (.text:_ZNSt3__27codecvtIwciED1Ev)
                  0001de1c    00000024                                   : vec_newdel.c.obj (.text:__cxa_vec_ctor)
                  0001de40    00000024     empty_pem4f.oem4f (.text:ti_sysbios_BIOS_registerRTSLock__I)
                  0001de64    00000024     empty_pem4f.oem4f (.text:ti_sysbios_BIOS_startFunc__I)
                  0001de88    00000024     empty_pem4f.oem4f (.text:ti_sysbios_gates_GateHwi_Object__delete__S)
                  0001deac    00000024     empty_pem4f.oem4f (.text:ti_sysbios_heaps_HeapMem_Object__delete__S)
                  0001ded0    00000024     sysbios.aem4f : BIOS.obj (.text:ti_sysbios_knl_Clock_Module_startup__E)
                  0001def4    00000004     rtsv7M4_T_le_v4SPD16_eabi.lib : locale.cpp.obj (.text:_ZNSt3__210moneypunctIcLb0EED1Ev)
                  0001def8    00000024     sysbios.aem4f : BIOS.obj (.text:ti_sysbios_knl_Task_restoreHwi__E)
                  0001df1c    00000024     empty_pem4f.oem4f (.text:ti_uia_loggers_LoggerStopMode_Object__delete__S)
                  0001df40    00000024     ti.targets.arm.rtsarm.aem4f : System.oem4f (.text:xdc_runtime_System_vprintf__E)
                  0001df64    00000022     driverlib.lib : can.obj (.text:CANIntClear)
                  0001df86    00000022     rtsv7M4_T_le_v4SPD16_eabi.lib : locale.cpp.obj (.text:_ZNKSt3__25ctypeIcE9do_narrowEPKcS3_cPc)
                  0001dfa8    00000022                                   : locale.cpp.obj (.text:_ZNKSt3__25ctypeIwE10do_toupperEw)
                  0001dfca    00000022     Can.obj (.text:_ZNSt3__212__deque_baseI12CanMessage_tNS_9allocatorIS1_EEEC1Ev)
                  0001dfec    00000022     NetReceive.obj (.text:_ZNSt3__212__deque_baseI19messageIncomingInfoNS_9allocatorIS1_EEEC1Ev)
                  0001e00e    00000022     Can.obj (.text:_ZNSt3__212__tuple_implINS_15__tuple_indicesIJLj0EEEEJOiEEC1IJLj0EEJS3_EJEJEJiEEENS1_IJXT_EEEENS_13__tuple_typesIJDpT0_EEENS1_IJXT1_EEEENS7_IJDpT2_EEEDpOT3_)
                  0001e030    00000022     rtsv7M4_T_le_v4SPD16_eabi.lib : string.cpp.obj (.text:_ZNSt3__212basic_stringIcNS_11char_traitsIcEENS_9allocatorIcEEE13__get_pointerEv)
                  0001e052    00000022                                   : string.cpp.obj (.text:_ZNSt3__212basic_stringIcNS_11char_traitsIcEENS_9allocatorIcEEE5beginEv)
                  0001e074    00000022                                   : locale.cpp.obj (.text:_ZNSt3__214__num_get_base10__get_baseERNS_8ios_baseE)
                  0001e096    00000022     Codec.obj (.text:_ZNSt3__24fposIiEC1Ex)
                  0001e0b8    00000022     NetReceive.obj (.text:_ZNSt3__25dequeI19messageIncomingInfoNS_9allocatorIS1_EEE5frontEv)
                  0001e0da    00000022     Can.obj (.text:_ZNSt3__26__treeINS_12__value_typeIi12CanMessage_tEENS_19__map_value_compareIiS3_NS_4lessIiEELb1EEENS_9allocatorIS3_EEE28__emplace_unique_extract_keyINS_4pairIiS2_EEEENSC_INS_15__tree_iteratorIS3_PNS_11__tree_nodeIS3_PvEEiEEbEEOT_NS_23__extract_key_first_tagE)
                  0001e0fc    00000022     rtsv7M4_T_le_v4SPD16_eabi.lib : new.cpp.obj (.text:_Znwj)
                  0001e11e    00000002     --HOLE-- [fill = 0]
                  0001e120    00000022     sysbios.aem4f : BIOS.obj (.text:ti_sysbios_family_arm_lm4_Timer_write__I)
                  0001e142    00000022     empty_pem4f.oem4f (.text:ti_sysbios_family_arm_m3_Hwi_Handle__label__S)
                  0001e164    00000022     empty_pem4f.oem4f (.text:ti_sysbios_gates_GateHwi_Handle__label__S)
                  0001e186    00000022     empty_pem4f.oem4f (.text:ti_sysbios_gates_GateMutex_Handle__label__S)
                  0001e1a8    00000022     empty_pem4f.oem4f (.text:ti_sysbios_heaps_HeapMem_Handle__label__S)
                  0001e1ca    00000022     empty_pem4f.oem4f (.text:ti_sysbios_knl_Swi_Handle__label__S)
                  0001e1ec    00000022     empty_pem4f.oem4f (.text:ti_sysbios_knl_Task_Handle__label__S)
                  0001e20e    00000022     empty_pem4f.oem4f (.text:ti_uia_loggers_LoggerStopMode_Handle__label__S)
                  0001e230    00000022     empty_pem4f.oem4f (.text:ti_uia_loggers_LoggerStopMode_fillInTimestamp)
                  0001e252    00000002     --HOLE-- [fill = 0]
                  0001e254    00000021     rtsv7M4_T_le_v4SPD16_eabi.lib : locale.cpp.obj (.text:_ZNKSt3__28numpunctIcE11do_truenameEv)
                  0001e275    00000001     --HOLE-- [fill = 0]
                  0001e276    00000020     driverlib.lib : can.obj (.text:CANIntStatus)
                  0001e296    00000002     --HOLE-- [fill = 0]
                  0001e298    00000020     isotp_user.obj (.text:_Z19isotp_user_send_canjPKhh)
                  0001e2b8    00000020     NetReceive.obj (.text:_ZN10NetReceiveC1Ev)
                  0001e2d8    00000020     Codec.obj (.text:_ZNSt3__211char_traitsIcE2eqEcc)
                  0001e2f8    00000020     rtsv7M4_T_le_v4SPD16_eabi.lib : string.cpp.obj (.text:_ZNSt3__212basic_stringIcNS_11char_traitsIcEENS_9allocatorIcEEED1Ev)
                  0001e318    00000020                                   : string.cpp.obj (.text:_ZNSt3__212basic_stringIwNS_11char_traitsIwEENS_9allocatorIwEEED1Ev)
                  0001e338    00000020                                   : locale.cpp.obj (.text:_ZNSt3__217__call_once_proxyINS_5tupleIJONS_34_GLOBAL__N__10_locale_cpp_a718320311__fake_bindEEEEEEvPv)
                  0001e358    00000020                                   : locale.cpp.obj (.text:_ZNSt3__219istreambuf_iteratorIcNS_11char_traitsIcEEEppEv)
                  0001e378    00000020                                   : locale.cpp.obj (.text:_ZNSt3__219istreambuf_iteratorIwNS_11char_traitsIwEEEppEv)
                  0001e398    00000020     Can.obj (.text:_ZNSt3__222__tree_node_destructorINS_9allocatorINS_11__tree_nodeINS_12__value_typeIi12CanMessage_tEEPvEEEEEC1ERS8_b)
                  0001e3b8    00000020     Can.obj (.text:_ZNSt3__26__treeINS_12__value_typeIi12CanMessage_tEENS_19__map_value_compareIiS3_NS_4lessIiEELb1EEENS_9allocatorIS3_EEE16__emplace_uniqueINS_4pairIiS2_EEEENSC_INS_15__tree_iteratorIS3_PNS_11__tree_nodeIS3_PvEEiEEbEEOT_)
                  0001e3d8    00000020     Codec.obj (.text:_ZNSt3__2eqIPcS1_EEbRKNS_11__wrap_iterIT_EERKNS2_IT0_EE)
                  0001e3f8    00000020     Handler.obj (.text:_ZNSt3__2eqIPhS1_EEbRKNS_11__wrap_iterIT_EERKNS2_IT0_EE)
                  0001e418    00000020     Codec.obj (.text:_ZNSt3__2eqIPtS1_EEbRKNS_11__wrap_iterIT_EERKNS2_IT0_EE)
                  0001e438    00000020     ArgumentArray.obj (.text:_ZNSt3__2ltIPNS_5tupleIJNS_12basic_stringIcNS_11char_traitsIcEENS_9allocatorIcEEEE8ArgumentEEESA_EEbRKNS_11__wrap_iterIT_EERKNSB_IT0_EE)
                  0001e458    00000020     ArgumentArray.obj (.text:_ZNSt3__2neIPNS_5tupleIJNS_12basic_stringIcNS_11char_traitsIcEENS_9allocatorIcEEEE8ArgumentEEESA_EEbRKNS_13move_iteratorIT_EERKNSB_IT0_EE)
                  0001e478    00000020     Can.obj (.text:_ZNSt3__2neIPP12CanMessage_tS3_EEbRKNS_13move_iteratorIT_EERKNS4_IT0_EE)
                  0001e498    00000020     NetReceive.obj (.text:_ZNSt3__2neIPP19messageIncomingInfoS3_EEbRKNS_13move_iteratorIT_EERKNS4_IT0_EE)
                  0001e4b8    00000020     rtsv7M4_T_le_v4SPD16_eabi.lib : wctype.c.obj (.text:iswlower)
                  0001e4d8    00000020                                   : memchr.c.obj (.text:memchr)
                  0001e4f8    00000020     empty_pem4f.oem4f (.text:ti_sysbios_BIOS_removeRTSLock__I)
                  0001e518    00000020     sysbios.aem4f : m3_Hwi_asm.obj (.text:ti_sysbios_family_arm_m3_Hwi_excHandlerAsm__I)
                  0001e538    00000020                   : BIOS.obj (.text:ti_sysbios_family_arm_m3_Hwi_excHandler__I)
                  0001e558    00000020                   : BIOS.obj (.text:ti_sysbios_knl_Idle_run__E)
                  0001e578    00000020     empty_pem4f.oem4f (.text:ti_sysbios_knl_Semaphore_Object__destruct__S)
                  0001e598    00000020     rtsv7M4_T_le_v4SPD16_eabi.lib : sscanf.c.obj (.text:vsscanf)
                  0001e5b8    00000020                                   : none_mb.c.obj (.text:wcrtomb)
                  0001e5d8    00000020     empty_pem4f.oem4f (.text:xdc_runtime_IHeap_alloc)
                  0001e5f8    00000020     ti.targets.arm.rtsarm.aem4f : Registry.oem4f (.text:xdc_runtime_Registry_findById__E)
                  0001e618    00000020                                 : SysMin.oem4f (.text:xdc_runtime_SysMin_Module_startup__E)
                  0001e638    00000020     empty_pem4f.oem4f (.text:xdc_runtime_Text_visitRope__I)
                  0001e658    0000001e     Can.obj (.text:_ZN3CanD1Ev)
                  0001e676    0000001e     rtsv7M4_T_le_v4SPD16_eabi.lib : locale.cpp.obj (.text:_ZNKSt3__210moneypunctIcLb0EE13do_neg_formatEv)
                  0001e694    0000001e                                   : locale.cpp.obj (.text:_ZNKSt3__210moneypunctIcLb0EE13do_pos_formatEv)
                  0001e6b2    0000001e                                   : locale.cpp.obj (.text:_ZNKSt3__210moneypunctIcLb0EE16do_negative_signEv)
                  0001e6d0    0000001e                                   : locale.cpp.obj (.text:_ZNKSt3__210moneypunctIcLb1EE13do_neg_formatEv)
                  0001e6ee    0000001e                                   : locale.cpp.obj (.text:_ZNKSt3__210moneypunctIcLb1EE13do_pos_formatEv)
                  0001e70c    0000001e                                   : locale.cpp.obj (.text:_ZNKSt3__210moneypunctIcLb1EE16do_negative_signEv)
                  0001e72a    0000001e                                   : locale.cpp.obj (.text:_ZNKSt3__210moneypunctIwLb0EE13do_neg_formatEv)
                  0001e748    0000001e                                   : locale.cpp.obj (.text:_ZNKSt3__210moneypunctIwLb0EE13do_pos_formatEv)
                  0001e766    0000001e                                   : locale.cpp.obj (.text:_ZNKSt3__210moneypunctIwLb0EE16do_negative_signEv)
                  0001e784    0000001e                                   : locale.cpp.obj (.text:_ZNKSt3__210moneypunctIwLb1EE13do_neg_formatEv)
                  0001e7a2    0000001e                                   : locale.cpp.obj (.text:_ZNKSt3__210moneypunctIwLb1EE13do_pos_formatEv)
                  0001e7c0    0000001e                                   : locale.cpp.obj (.text:_ZNKSt3__210moneypunctIwLb1EE16do_negative_signEv)
                  0001e7de    0000001e     Can.obj (.text:_ZNKSt3__24lessIiEclERKiS3_)
                  0001e7fc    0000001e     Can.obj (.text:_ZNKSt3__25dequeI12CanMessage_tNS_9allocatorIS1_EEE12__back_spareEv)
                  0001e81a    0000001e     NetReceive.obj (.text:_ZNKSt3__25dequeI19messageIncomingInfoNS_9allocatorIS1_EEE12__back_spareEv)
                  0001e838    0000001e     Codec.obj (.text:_ZNKSt3__26__lessIPcS1_EclERKS1_S4_)
                  0001e856    0000001e     ArgumentArray.obj (.text:_ZNKSt3__26__lessIjjEclERKjS3_)
                  0001e874    0000001e     rtsv7M4_T_le_v4SPD16_eabi.lib : string.cpp.obj (.text:_ZNSt3__211char_traitsIcE6assignEPcjc)
                  0001e892    0000001e     Codec.obj (.text:_ZNSt3__211char_traitsIcE7not_eofEi)
                  0001e8b0    0000001e     ArgumentArray.obj (.text:_ZNSt3__212__tuple_implINS_15__tuple_indicesIJLj0ELj1EEEEJNS_12basic_stringIcNS_11char_traitsIcEENS_9allocatorIcEEEE8ArgumentEEC1EOSA_)
                  0001e8ce    0000001e     rtsv7M4_T_le_v4SPD16_eabi.lib : string.cpp.obj (.text:_ZNSt3__212basic_stringIcNS_11char_traitsIcEENS_9allocatorIcEEEC1EPKc)
                  0001e8ec    0000001e                                   : string.cpp.obj (.text:_ZNSt3__212basic_stringIcNS_11char_traitsIcEENS_9allocatorIcEEEC1Ev)
                  0001e90a    0000001e                                   : string.cpp.obj (.text:_ZNSt3__212basic_stringIwNS_11char_traitsIwEENS_9allocatorIwEEEC1Ev)
                  0001e928    0000001e                                   : ios.cpp.obj (.text:_ZNSt3__215basic_streambufIcNS_11char_traitsIcEEE5sputcEc)
                  0001e946    0000001e                                   : ios.cpp.obj (.text:_ZNSt3__215basic_streambufIcNS_11char_traitsIcEEE7seekoffExNS_8ios_base7seekdirEj)
                  0001e964    0000001e     ArgumentArray.obj (.text:_ZNSt3__217__compressed_pairIPNS_5tupleIJNS_12basic_stringIcNS_11char_traitsIcEENS_9allocatorIcEEEE8ArgumentEEENS5_IS9_EEEC1IDnLb1EEEOT_)
                  0001e982    0000001e     Can.obj (.text:_ZNSt3__217__compressed_pairIPP12CanMessage_tNS_9allocatorIS2_EEEC1IDnLb1EEEOT_)
                  0001e9a0    0000001e     NetReceive.obj (.text:_ZNSt3__217__compressed_pairIPP19messageIncomingInfoNS_9allocatorIS2_EEEC1IDnLb1EEEOT_)
                  0001e9be    0000001e     Handler.obj (.text:_ZNSt3__217__compressed_pairIPhNS_9allocatorIhEEEC1IDnLb1EEEOT_)
                  0001e9dc    0000001e     Codec.obj (.text:_ZNSt3__217__compressed_pairIPtNS_9allocatorItEEEC1IDnLb1EEEOT_)
                  0001e9fa    0000001e     Can.obj (.text:_ZNSt3__217__compressed_pairIjNS_9allocatorI12CanMessage_tEEEC1IiLb1EEEOT_)
                  0001ea18    0000001e     NetReceive.obj (.text:_ZNSt3__217__compressed_pairIjNS_9allocatorI19messageIncomingInfoEEEC1IiLb1EEEOT_)
                  0001ea36    0000001e     Codec.obj (.text:_ZNSt3__23maxIPcNS_6__lessIS1_S1_EEEERKT_S6_S6_T0_)
                  0001ea54    0000001e     ArgumentArray.obj (.text:_ZNSt3__23maxIjNS_6__lessIjjEEEERKT_S5_S5_T0_)
                  0001ea72    0000001e     ArgumentArray.obj (.text:_ZNSt3__23minIjNS_6__lessIjjEEEERKT_S5_S5_T0_)
                  0001ea90    0000001e     Can.obj (.text:_ZNSt3__2neERKNS_15__tree_iteratorINS_12__value_typeIi12CanMessage_tEEPNS_11__tree_nodeIS3_PvEEiEESA_)
                  0001eaae    0000001e     Can.obj (.text:_ZNSt3__2neERKNS_16__deque_iteratorI12CanMessage_tPS1_RS1_PS2_iLi0EEES7_)
                  0001eacc    0000001e     NetReceive.obj (.text:_ZNSt3__2neERKNS_16__deque_iteratorI19messageIncomingInfoPS1_RS1_PS2_iLi0EEES7_)
                  0001eaea    0000001e     Codec.obj (.text:_ZNSt3__2neIPcEEbRKNS_11__wrap_iterIT_EES6_)
                  0001eb08    0000001e     Handler.obj (.text:_ZNSt3__2neIPhEEbRKNS_11__wrap_iterIT_EES6_)
                  0001eb26    0000001e     Codec.obj (.text:_ZNSt3__2neIPtEEbRKNS_11__wrap_iterIT_EES6_)
                  0001eb44    0000001e     Codec.obj (.text:_ZTv0_n12_NSt3__218basic_stringstreamIcNS_11char_traitsIcEENS_9allocatorIcEEED1Ev)
                  0001eb62    0000001e     sysbios.aem4f : m3_Hwi_asm_switch.obj (.text:ti_sysbios_family_xxx_Hwi_switchAndRunFunc)
                  0001eb80    0000001e     empty_pem4f.oem4f (.text:ti_sysbios_knl_Queue_Object__get__S)
                  0001eb9e    0000001e     empty_pem4f.oem4f (.text:ti_sysbios_knl_Task_SupportProxy_start__E)
                  0001ebbc    0000001e     empty_pem4f.oem4f (.text:xdc_runtime_Memory_HeapProxy_alloc__E)
                  0001ebda    00000002     --HOLE-- [fill = 0]
                  0001ebdc    0000001c     driverlib.lib : systick.obj (.text:SysTickIntRegister)
                  0001ebf8    0000001c     isotp.obj (.text:_Z10isotp_sendP9IsoTpLinkPKht)
                  0001ec14    0000001c     Argument.obj (.text:_Z13swapByteOrderRt)
                  0001ec30    0000001c     ArgumentArray.obj (.text:_ZN13ArgumentArrayC1ERKS_)
                  0001ec4c    0000001c     ArgumentArray.obj (.text:_ZN13ArgumentArrayC1Ev)
                  0001ec68    0000001c     rtsv7M4_T_le_v4SPD16_eabi.lib : locale.cpp.obj (.text:_ZNKSt3__210moneypunctIcLb0EE11do_groupingEv)
                  0001ec84    0000001c                                   : locale.cpp.obj (.text:_ZNKSt3__210moneypunctIcLb0EE14do_curr_symbolEv)
                  0001eca0    0000001c                                   : locale.cpp.obj (.text:_ZNKSt3__210moneypunctIcLb0EE16do_positive_signEv)
                  0001ecbc    0000001c                                   : locale.cpp.obj (.text:_ZNKSt3__210moneypunctIcLb1EE11do_groupingEv)
                  0001ecd8    0000001c                                   : locale.cpp.obj (.text:_ZNKSt3__210moneypunctIcLb1EE14do_curr_symbolEv)
                  0001ecf4    0000001c                                   : locale.cpp.obj (.text:_ZNKSt3__210moneypunctIcLb1EE16do_positive_signEv)
                  0001ed10    0000001c                                   : locale.cpp.obj (.text:_ZNKSt3__210moneypunctIwLb0EE11do_groupingEv)
                  0001ed2c    0000001c                                   : locale.cpp.obj (.text:_ZNKSt3__210moneypunctIwLb0EE14do_curr_symbolEv)
                  0001ed48    0000001c                                   : locale.cpp.obj (.text:_ZNKSt3__210moneypunctIwLb0EE16do_positive_signEv)
                  0001ed64    0000001c                                   : locale.cpp.obj (.text:_ZNKSt3__210moneypunctIwLb1EE11do_groupingEv)
                  0001ed80    0000001c                                   : locale.cpp.obj (.text:_ZNKSt3__210moneypunctIwLb1EE14do_curr_symbolEv)
                  0001ed9c    0000001c                                   : locale.cpp.obj (.text:_ZNKSt3__210moneypunctIwLb1EE16do_positive_signEv)
                  0001edb8    0000001c                                   : string.cpp.obj (.text:_ZNKSt3__212basic_stringIcNS_11char_traitsIcEENS_9allocatorIcEEE8capacityEv)
                  0001edd4    0000001c                                   : locale.cpp.obj (.text:_ZNKSt3__25ctypeIwE5do_isEhw)
                  0001edf0    0000001c     Can.obj (.text:_ZNKSt3__25dequeI12CanMessage_tNS_9allocatorIS1_EEE10__capacityEv)
                  0001ee0c    0000001c     NetReceive.obj (.text:_ZNKSt3__25dequeI19messageIncomingInfoNS_9allocatorIS1_EEE10__capacityEv)
                  0001ee28    0000001c     Handler.obj (.text:_ZNSt16initializer_listIhEC1EPKhj)
                  0001ee44    0000001c     Can.obj (.text:_ZNSt3__210__tree_minIPNS_16__tree_node_baseIPvEEEET_S5_)
                  0001ee60    0000001c     Can.obj (.text:_ZNSt3__210unique_ptrINS_11__tree_nodeINS_12__value_typeIi12CanMessage_tEEPvEENS_22__tree_node_destructorINS_9allocatorIS6_EEEEE7releaseEv)
                  0001ee7c    0000001c     Can.obj (.text:_ZNSt3__210unique_ptrINS_11__tree_nodeINS_12__value_typeIi12CanMessage_tEEPvEENS_22__tree_node_destructorINS_9allocatorIS6_EEEEEC1ILb1EvEEPS6_NS_16__dependent_typeINS_27__unique_ptr_deleter_sfinaeISA_EEXT_EE20__good_rval_ref_typeE)
                  0001ee98    0000001c     Can.obj (.text:_ZNSt3__210unique_ptrIP12CanMessage_tNS_22__allocator_destructorINS_9allocatorIS1_EEEEE7releaseEv)
                  0001eeb4    0000001c     Can.obj (.text:_ZNSt3__210unique_ptrIP12CanMessage_tNS_22__allocator_destructorINS_9allocatorIS1_EEEEEC1ILb1EvEES2_NS_16__dependent_typeINS_27__unique_ptr_deleter_sfinaeIS6_EEXT_EE20__good_rval_ref_typeE)
                  0001eed0    0000001c     NetReceive.obj (.text:_ZNSt3__210unique_ptrIP19messageIncomingInfoNS_22__allocator_destructorINS_9allocatorIS1_EEEEE7releaseEv)
                  0001eeec    0000001c     NetReceive.obj (.text:_ZNSt3__210unique_ptrIP19messageIncomingInfoNS_22__allocator_destructorINS_9allocatorIS1_EEEEEC1ILb1EvEES2_NS_16__dependent_typeINS_27__unique_ptr_deleter_sfinaeIS6_EEXT_EE20__good_rval_ref_typeE)
                  0001ef08    0000001c     main.obj (.text:_ZNSt3__211char_traitsIcE4copyEPcPKcj)
                  0001ef24    0000001c     rtsv7M4_T_le_v4SPD16_eabi.lib : ios.cpp.obj (.text:_ZNSt3__213basic_istreamIcNS_11char_traitsIcEEED1Ev)
                  0001ef40    0000001c                                   : ios.cpp.obj (.text:_ZNSt3__213basic_ostreamIcNS_11char_traitsIcEEED1Ev)
                  0001ef5c    0000001c                                   : ios.cpp.obj (.text:_ZNSt3__214basic_iostreamIcNS_11char_traitsIcEEED1Ev)
                  0001ef78    0000001c     Can.obj (.text:_ZNSt3__216__deque_iteratorI12CanMessage_tPS1_RS1_PS2_iLi0EEC1ES4_S2_)
                  0001ef94    0000001c     NetReceive.obj (.text:_ZNSt3__216__deque_iteratorI19messageIncomingInfoPS1_RS1_PS2_iLi0EEC1ES4_S2_)
                  0001efb0    0000001c     Can.obj (.text:_ZNSt3__222__allocator_destructorINS_9allocatorI12CanMessage_tEEEC1ERS3_j)
                  0001efcc    0000001c     NetReceive.obj (.text:_ZNSt3__222__allocator_destructorINS_9allocatorI19messageIncomingInfoEEEC1ERS3_j)
                  0001efe8    0000001c     rtsv7M4_T_le_v4SPD16_eabi.lib : locale.cpp.obj (.text:_ZNSt3__26locale5__imp12make_classicEv)
                  0001f004    0000001c                                   : locale.cpp.obj (.text:_ZNSt3__27codecvtIwciEC1Ej)
                  0001f020    0000001c     Can.obj (.text:_ZNSt3__2eqERKNS_15__tree_iteratorINS_12__value_typeIi12CanMessage_tEEPNS_11__tree_nodeIS3_PvEEiEESA_)
                  0001f03c    0000001c     Can.obj (.text:_ZNSt3__2eqERKNS_16__deque_iteratorI12CanMessage_tPS1_RS1_PS2_iLi0EEES7_)
                  0001f058    0000001c     NetReceive.obj (.text:_ZNSt3__2eqERKNS_16__deque_iteratorI19messageIncomingInfoPS1_RS1_PS2_iLi0EEES7_)
                  0001f074    0000001c     rtsv7M4_T_le_v4SPD16_eabi.lib : vec_newdel.c.obj (.text:__cxa_vec_dtor)
                  0001f090    0000001c                                   : assert.c.obj (.text:_abort_msg)
                  0001f0ac    0000001c                                   : memccpy.c.obj (.text:memccpy)
                  0001f0c8    0000001c                                   : locale_stdio.c.obj (.text:snprintf_l)
                  0001f0e4    0000001c     empty_pem4f.oem4f (.text:ti_sysbios_family_arm_lm4_Timer_Module__startupDone__F)
                  0001f100    0000001c     empty_pem4f.oem4f (.text:ti_sysbios_family_arm_m3_Hwi_Module__startupDone__F)
                  0001f11c    00000004     rtsv7M4_T_le_v4SPD16_eabi.lib : locale.cpp.obj (.text:_ZNSt3__210moneypunctIcLb1EED1Ev)
                  0001f120    0000001c     sysbios.aem4f : BIOS.obj (.text:ti_sysbios_gates_GateMutex_Instance_init__E)
                  0001f13c    0000001c     empty_pem4f.oem4f (.text:ti_sysbios_knl_Queue_Object__destruct__S)
                  0001f158    0000001c     sysbios.aem4f : BIOS.obj (.text:ti_sysbios_knl_Queue_put__E)
                  0001f174    00000004     rtsv7M4_T_le_v4SPD16_eabi.lib : locale.cpp.obj (.text:_ZNSt3__210moneypunctIwLb0EED1Ev)
                  0001f178    0000001c     sysbios.aem4f : BIOS.obj (.text:ti_sysbios_knl_Task_enter__I)
                  0001f194    0000001c     ti.uia.loggers.aem4f : LoggerStopMode.oem4f (.text:ti_uia_loggers_LoggerStopMode_Instance_init__E)
                  0001f1b0    0000001c     ti.targets.arm.rtsarm.aem4f : Error.oem4f (.text:xdc_runtime_Error_raiseX__E)
                  0001f1cc    0000001c                                 : Memory.oem4f (.text:xdc_runtime_Memory_valloc__E)
                  0001f1e8    0000001c     empty_pem4f.oem4f (.text:xdc_runtime_Startup_exec__I)
                  0001f204    0000001c     ti.targets.arm.rtsarm.aem4f : SysMin.oem4f (.text:xdc_runtime_SysMin_exit__E)
                  0001f220    0000001c                                 : System.oem4f (.text:xdc_runtime_System_abort__E)
                  0001f23c    0000001a     Can.obj (.text:_ZNKSt3__214__split_bufferIP12CanMessage_tNS_9allocatorIS2_EEE5emptyEv)
                  0001f256    0000001a     NetReceive.obj (.text:_ZNKSt3__214__split_bufferIP19messageIncomingInfoNS_9allocatorIS2_EEE5emptyEv)
                  0001f270    0000001a     ArgumentArray.obj (.text:_ZNSt3__211__wrap_iterIPNS_5tupleIJNS_12basic_stringIcNS_11char_traitsIcEENS_9allocatorIcEEEE8ArgumentEEEEpLEi)
                  0001f28a    0000001a     rtsv7M4_T_le_v4SPD16_eabi.lib : locale.cpp.obj (.text:_ZNSt3__214__shared_count16__release_sharedEv)
                  0001f2a4    0000001a     Can.obj (.text:_ZNSt3__220__tree_is_left_childIPNS_16__tree_node_baseIPvEEEEbT_)
                  0001f2be    0000001a     Can.obj (.text:_ZNSt3__23mapIi12CanMessage_tNS_4lessIiEENS_9allocatorINS_4pairIKiS1_EEEEE4findERS6_)
                  0001f2d8    0000001a     Can.obj (.text:_ZNSt3__23mapIi12CanMessage_tNS_4lessIiEENS_9allocatorINS_4pairIKiS1_EEEEEC1Ev)
                  0001f2f2    0000001a     Can.obj (.text:_ZNSt3__26__treeINS_12__value_typeIi12CanMessage_tEENS_19__map_value_compareIiS3_NS_4lessIiEELb1EEENS_9allocatorIS3_EEE15__insert_uniqueINS_4pairIiS2_EEvEENSC_INS_15__tree_iteratorIS3_PNS_11__tree_nodeIS3_PvEEiEEbEEOT_)
                  0001f30c    0000001a     rtsv7M4_T_le_v4SPD16_eabi.lib : locale.cpp.obj (.text:_ZNSt3__28numpunctIcED1Ev)
                  0001f326    0000001a                                   : locale.cpp.obj (.text:_ZNSt3__28numpunctIwED1Ev)
                  0001f340    0000001a                                   : locale.cpp.obj (.text:_ZNSt3__28time_putIcNS_19ostreambuf_iteratorIcNS_11char_traitsIcEEEEED0Ev)
                  0001f35a    0000001a                                   : locale.cpp.obj (.text:_ZNSt3__28time_putIwNS_19ostreambuf_iteratorIwNS_11char_traitsIwEEEEED0Ev)
                  0001f374    0000001a     ArgumentArray.obj (.text:_ZNSt3__2miIPKNS_5tupleIJNS_12basic_stringIcNS_11char_traitsIcEENS_9allocatorIcEEEE8ArgumentEEEPS9_EEDTmicldtfp_4baseEcldtfp0_4baseEERKNS_11__wrap_iterIT_EERKNSE_IT0_EE)
                  0001f38e    0000001a     ArgumentArray.obj (.text:_ZNSt3__2miIPNS_5tupleIJNS_12basic_stringIcNS_11char_traitsIcEENS_9allocatorIcEEEE8ArgumentEEESA_EEDTmicldtfp_4baseEcldtfp0_4baseEERKNS_11__wrap_iterIT_EERKNSC_IT0_EE)
                  0001f3a8    0000001a     Codec.obj (.text:_ZTv0_n12_NSt3__218basic_stringstreamIcNS_11char_traitsIcEENS_9allocatorIcEEED0Ev)
                  0001f3c2    0000001a     rtsv7M4_T_le_v4SPD16_eabi.lib : asprintf.c.obj (.text:asprintf_l)
                  0001f3dc    0000001a                                   : s_copysign.c.obj (.text:copysign)
                  0001f3f6    0000001a                                   : locale_stdio.c.obj (.text:sscanf_l)
                  0001f410    0000001a     empty_pem4f.oem4f (.text:xdc_runtime_IHeap_free)
                  0001f42a    00000002     --HOLE-- [fill = 0]
                  0001f42c    00000018     rtsv7M4_T_le_v4SPD16_eabi.lib : locale.cpp.obj (.text:$P$F1)
                  0001f444    00000018     driverlib.lib : can.obj (.text:CANIntRegister)
                  0001f45c    00000018     Comm.obj (.text:_ZN4CommC1Ev)
                  0001f474    00000018     Codec.obj (.text:_ZN5CodecC1Ev)
                  0001f48c    00000018     NetComm.obj (.text:_ZN7NetCommC1Ev)
                  0001f4a4    00000018     Receive.obj (.text:_ZN7ReceiveC1Ev)
                  0001f4bc    00000018     ArgumentArray.obj (.text:_ZNKSt3__211__wrap_iterIPNS_5tupleIJNS_12basic_stringIcNS_11char_traitsIcEENS_9allocatorIcEEEE8ArgumentEEEEplEi)
                  0001f4d4    00000018     rtsv7M4_T_le_v4SPD16_eabi.lib : locale.cpp.obj (.text:_ZNKSt3__25ctypeIcE8do_widenEPKcS3_Pc)
                  0001f4ec    00000018                                   : locale.cpp.obj (.text:_ZNKSt3__25ctypeIwE8do_widenEPKcS3_Pw)
                  0001f504    00000018                                   : locale.cpp.obj (.text:_ZNKSt3__27codecvtIDiciE9do_lengthERiPKcS4_j)
                  0001f51c    00000018                                   : locale.cpp.obj (.text:_ZNKSt3__27codecvtIDsciE9do_lengthERiPKcS4_j)
                  0001f534    00000018                                   : locale.cpp.obj (.text:_ZNSt3__210__time_putD1Ev)
                  0001f54c    00000018                                   : mutex.cpp.obj (.text:_ZNSt3__211__call_onceERVmPvPFvS2_E)
                  0001f564    00000018     Codec.obj (.text:_ZNSt3__211char_traitsIcE11eq_int_typeEii)
                  0001f57c    00000018     ArgumentArray.obj (.text:_ZNSt3__212__tuple_leafILj0ENS_12basic_stringIcNS_11char_traitsIcEENS_9allocatorIcEEEELb0EEC1IRA1_KcvEEOT_)
                  0001f594    00000018     ArgumentArray.obj (.text:_ZNSt3__212__tuple_leafILj0ENS_12basic_stringIcNS_11char_traitsIcEENS_9allocatorIcEEEELb0EEaSIS6_EERS7_OT_)
                  0001f5ac    00000018     ArgumentArray.obj (.text:_ZNSt3__212__tuple_leafILj1E8ArgumentLb0EEC1IRS1_vEEOT_)
                  0001f5c4    00000018     ArgumentArray.obj (.text:_ZNSt3__212__tuple_leafILj1E8ArgumentLb0EEaSIS1_EERS2_OT_)
                  0001f5dc    00000018     rtsv7M4_T_le_v4SPD16_eabi.lib : string.cpp.obj (.text:_ZNSt3__212basic_stringIcNS_11char_traitsIcEENS_9allocatorIcEEE6assignEPKc)
                  0001f5f4    00000018                                   : string.cpp.obj (.text:_ZNSt3__212basic_stringIcNS_11char_traitsIcEENS_9allocatorIcEEEC1EPKcj)
                  0001f60c    00000018                                   : string.cpp.obj (.text:_ZNSt3__212basic_stringIwNS_11char_traitsIwEENS_9allocatorIwEEE6assignEPKw)
                  0001f624    00000018     Can.obj (.text:_ZNSt3__222__compressed_pair_elemINS_22__allocator_destructorINS_9allocatorI12CanMessage_tEEEELi1ELb0EEC1IS5_vEEOT_)
                  0001f63c    00000018     NetReceive.obj (.text:_ZNSt3__222__compressed_pair_elemINS_22__allocator_destructorINS_9allocatorI19messageIncomingInfoEEEELi1ELb0EEC1IS5_vEEOT_)
                  0001f654    00000018     Can.obj (.text:_ZNSt3__222__compressed_pair_elemINS_22__tree_node_destructorINS_9allocatorINS_11__tree_nodeINS_12__value_typeIi12CanMessage_tEEPvEEEEEELi1ELb0EEC1ISA_vEEOT_)
                  0001f66c    00000018     rtsv7M4_T_le_v4SPD16_eabi.lib : locale.cpp.obj (.text:_ZNSt3__25ctypeIcED1Ev)
                  0001f684    00000018                                   : locale.cpp.obj (.text:_ZNSt3__26locale5__imp11make_globalEv)
                  0001f69c    00000018                                   : locale.cpp.obj (.text:_ZNSt3__26localeD1Ev)
                  0001f6b4    00000018                                   : locale.cpp.obj (.text:_ZNSt3__26vectorIPNS_6locale5facetENS_15__sso_allocatorIS3_Lj28EEEE18__construct_at_endEj)
                  0001f6cc    00000018     Handler.obj (.text:_ZNSt3__2miIPhS1_EEDTmicldtfp_4baseEcldtfp0_4baseEERKNS_11__wrap_iterIT_EERKNS3_IT0_EE)
                  0001f6e4    00000018     rtsv7M4_T_le_v4SPD16_eabi.lib : args_main.c.obj (.text:_args_main)
                  0001f6fc    00000018                                   : snprintf.c.obj (.text:_outc)
                  0001f714    00000018                                   : vsnprintf.c.obj (.text:_outc)
                  0001f72c    00000018                                   : sprintf.c.obj (.text:_outs)
                  0001f744    00000018                                   : s_copysignf.c.obj (.text:copysignf)
                  0001f75c    00000018                                   : ll_mul_t2.asm.obj (.text)
                  0001f774    00000018                                   : strcmp.c.obj (.text:strcmp)
                  0001f78c    00000018                                   : strrchr.c.obj (.text:strrchr)
                  0001f7a4    00000018     sysbios.aem4f : m3_TaskSupport_asm.obj (.text:ti_sysbios_family_arm_m3_TaskSupport_swap__E)
                  0001f7bc    00000004     rtsv7M4_T_le_v4SPD16_eabi.lib : locale.cpp.obj (.text:_ZNSt3__210moneypunctIwLb1EED1Ev)
                  0001f7c0    00000018     sysbios.aem4f : BIOS.obj (.text:ti_sysbios_gates_GateMutex_leave__E)
                  0001f7d8    00000018     ti.targets.arm.rtsarm.aem4f : Error.oem4f (.text:xdc_runtime_Error_check__E)
                  0001f7f0    00000018                                 : System.oem4f (.text:xdc_runtime_System_exit__E)
                  0001f808    00000018                                 : Text.oem4f (.text:xdc_runtime_Text_ropeText__E)
                  0001f820    00000017     isotp_user.obj (.text:_Z16isotp_user_debugPKc)
                  0001f837    00000001     --HOLE-- [fill = 0]
                  0001f838    00000016     NetReceive.obj (.text:_ZN10NetReceive16messageAvailableEv)
                  0001f84e    00000016     NetReceive.obj (.text:_ZN10NetReceiveD1Ev)
                  0001f864    00000016     main.obj (.text:_ZN25_INTERNAL_8_main_cpp_can031ti_sysbios_knl_Task_Params_initEP26ti_sysbios_knl_Task_Params)
                  0001f87a    00000016     main.obj (.text:_ZN25_INTERNAL_8_main_cpp_can032ti_sysbios_knl_Clock_Params_initEP27ti_sysbios_knl_Clock_Params)
                  0001f890    00000016     Can.obj (.text:_ZN3CanD0Ev)
                  0001f8a6    00000016     rtsv7M4_T_le_v4SPD16_eabi.lib : string.cpp.obj (.text:_ZNKSt3__212basic_stringIcNS_11char_traitsIcEENS_9allocatorIcEEE4dataEv)
                  0001f8bc    00000016                                   : string.cpp.obj (.text:_ZNKSt3__212basic_stringIcNS_11char_traitsIcEENS_9allocatorIcEEE4sizeEv)
                  0001f8d2    00000016                                   : string.cpp.obj (.text:_ZNKSt3__212basic_stringIcNS_11char_traitsIcEENS_9allocatorIcEEE5c_strEv)
                  0001f8e8    00000016     ArgumentArray.obj (.text:_ZNKSt3__213__vector_baseINS_5tupleIJNS_12basic_stringIcNS_11char_traitsIcEENS_9allocatorIcEEEE8ArgumentEEENS5_IS9_EEE8capacityEv)
                  0001f8fe    00000016     ArgumentArray.obj (.text:_ZNKSt3__213__vector_baseItNS_9allocatorItEEE8capacityEv)
                  0001f914    00000016     ArgumentArray.obj (.text:_ZNKSt3__214__split_bufferINS_5tupleIJNS_12basic_stringIcNS_11char_traitsIcEENS_9allocatorIcEEEE8ArgumentEEERNS5_IS9_EEE8capacityEv)
                  0001f92a    00000016     Can.obj (.text:_ZNKSt3__214__split_bufferIP12CanMessage_tNS_9allocatorIS2_EEE12__back_spareEv)
                  0001f940    00000016     Can.obj (.text:_ZNKSt3__214__split_bufferIP12CanMessage_tNS_9allocatorIS2_EEE4sizeEv)
                  0001f956    00000016     Can.obj (.text:_ZNKSt3__214__split_bufferIP12CanMessage_tNS_9allocatorIS2_EEE8capacityEv)
                  0001f96c    00000016     Can.obj (.text:_ZNKSt3__214__split_bufferIP12CanMessage_tRNS_9allocatorIS2_EEE8capacityEv)
                  0001f982    00000016     NetReceive.obj (.text:_ZNKSt3__214__split_bufferIP19messageIncomingInfoNS_9allocatorIS2_EEE12__back_spareEv)
                  0001f998    00000016     NetReceive.obj (.text:_ZNKSt3__214__split_bufferIP19messageIncomingInfoNS_9allocatorIS2_EEE4sizeEv)
                  0001f9ae    00000016     NetReceive.obj (.text:_ZNKSt3__214__split_bufferIP19messageIncomingInfoNS_9allocatorIS2_EEE8capacityEv)
                  0001f9c4    00000016     NetReceive.obj (.text:_ZNKSt3__214__split_bufferIP19messageIncomingInfoRNS_9allocatorIS2_EEE8capacityEv)
                  0001f9da    00000016     ArgumentArray.obj (.text:_ZNKSt3__214__split_bufferItRNS_9allocatorItEEE8capacityEv)
                  0001f9f0    00000016     rtsv7M4_T_le_v4SPD16_eabi.lib : locale.cpp.obj (.text:_ZNKSt3__26locale9use_facetERNS0_2idE)
                  0001fa06    00000016     ArgumentArray.obj (.text:_ZNKSt3__26vectorINS_5tupleIJNS_12basic_stringIcNS_11char_traitsIcEENS_9allocatorIcEEEE8ArgumentEEENS5_IS9_EEE4sizeEv)
                  0001fa1c    00000016     ArgumentArray.obj (.text:_ZNKSt3__26vectorItNS_9allocatorItEEE4sizeEv)
                  0001fa32    00000016     Codec.obj (.text:_ZNSt3__210__distanceIPcEENS_15iterator_traitsIT_E15difference_typeES3_S3_NS_26random_access_iterator_tagE)
                  0001fa48    00000016     ArgumentArray.obj (.text:_ZNSt3__211__wrap_iterIPKNS_5tupleIJNS_12basic_stringIcNS_11char_traitsIcEENS_9allocatorIcEEEE8ArgumentEEEEC1IPS9_EERKNS0_IT_EEPNS_9enable_ifIXsr3std3__214is_convertibleISF_SB_EE5valueEvE4typeE)
                  0001fa5e    00000016     ArgumentArray.obj (.text:_ZNSt3__211__wrap_iterIPNS_5tupleIJNS_12basic_stringIcNS_11char_traitsIcEENS_9allocatorIcEEEE8ArgumentEEEEppEi)
                  0001fa74    00000016     ArgumentArray.obj (.text:_ZNSt3__212__tuple_implINS_15__tuple_indicesIJLj0ELj1EEEEJNS_12basic_stringIcNS_11char_traitsIcEENS_9allocatorIcEEEE8ArgumentEED1Ev)
                  0001fa8a    00000016     Can.obj (.text:_ZNSt3__214__split_bufferIP12CanMessage_tNS_9allocatorIS2_EEE19__destruct_at_beginEPS2_NS_17integral_constantIbLb1EEE)
                  0001faa0    00000016     NetReceive.obj (.text:_ZNSt3__214__split_bufferIP19messageIncomingInfoNS_9allocatorIS2_EEE19__destruct_at_beginEPS2_NS_17integral_constantIbLb1EEE)
                  0001fab6    00000016     rtsv7M4_T_le_v4SPD16_eabi.lib : ios.cpp.obj (.text:_ZNSt3__215basic_streambufIcNS_11char_traitsIcEEE5sgetcEv)
                  0001facc    00000016                                   : ios.cpp.obj (.text:_ZNSt3__215basic_streambufIwNS_11char_traitsIwEEE5sgetcEv)
                  0001fae2    00000016     Codec.obj (.text:_ZNSt3__215basic_stringbufIcNS_11char_traitsIcEENS_9allocatorIcEEED1Ev)
                  0001faf8    00000016     Can.obj (.text:_ZNSt3__216forward_as_tupleIJiEEENS_5tupleIJDpOT_EEES4_)
                  0001fb0e    00000016     Can.obj (.text:_ZNSt3__222__allocator_destructorINS_9allocatorI12CanMessage_tEEEclEPS2_)
                  0001fb24    00000016     NetReceive.obj (.text:_ZNSt3__222__allocator_destructorINS_9allocatorI19messageIncomingInfoEEEclEPS2_)
                  0001fb3a    00000016     Can.obj (.text:_ZNSt3__222__compressed_pair_elemIP12CanMessage_tLi0ELb0EEC1IRS2_vEEOT_)
                  0001fb50    00000016     NetReceive.obj (.text:_ZNSt3__222__compressed_pair_elemIP19messageIncomingInfoLi0ELb0EEC1IRS2_vEEOT_)
                  0001fb66    00000016     Can.obj (.text:_ZNSt3__222__compressed_pair_elemIPNS_11__tree_nodeINS_12__value_typeIi12CanMessage_tEEPvEELi0ELb0EEC1IRS7_vEEOT_)
                  0001fb7c    00000016     Can.obj (.text:_ZNSt3__222__compressed_pair_elemIPNS_11__tree_nodeINS_12__value_typeIi12CanMessage_tEEPvEELi0ELb0EEC1IS7_vEEOT_)
                  0001fb92    00000016     ArgumentArray.obj (.text:_ZNSt3__222__compressed_pair_elemIPNS_5tupleIJNS_12basic_stringIcNS_11char_traitsIcEENS_9allocatorIcEEEE8ArgumentEEELi0ELb0EEC1IDnvEEOT_)
                  0001fba8    00000016     Can.obj (.text:_ZNSt3__222__compressed_pair_elemIPP12CanMessage_tLi0ELb0EEC1IDnvEEOT_)
                  0001fbbe    00000016     NetReceive.obj (.text:_ZNSt3__222__compressed_pair_elemIPP19messageIncomingInfoLi0ELb0EEC1IDnvEEOT_)
                  0001fbd4    00000016     Handler.obj (.text:_ZNSt3__222__compressed_pair_elemIPhLi0ELb0EEC1IDnvEEOT_)
                  0001fbea    00000016     ArgumentArray.obj (.text:_ZNSt3__222__compressed_pair_elemIPtLi0ELb0EEC1IDnvEEOT_)
                  0001fc00    00000016     Can.obj (.text:_ZNSt3__222__compressed_pair_elemIjLi0ELb0EEC1IivEEOT_)
                  0001fc16    00000016     Can.obj (.text:_ZNSt3__26__treeINS_12__value_typeIi12CanMessage_tEENS_19__map_value_compareIiS3_NS_4lessIiEELb1EEENS_9allocatorIS3_EEE3endEv)
                  0001fc2c    00000016     Can.obj (.text:_ZNSt3__26__treeINS_12__value_typeIi12CanMessage_tEENS_19__map_value_compareIiS3_NS_4lessIiEELb1EEENS_9allocatorIS3_EEED1Ev)
                  0001fc42    00000016     rtsv7M4_T_le_v4SPD16_eabi.lib : locale.cpp.obj (.text:_ZNSt3__26localeC1Ev)
                  0001fc58    00000016     ArgumentArray.obj (.text:_ZNSt3__26vectorINS_5tupleIJNS_12basic_stringIcNS_11char_traitsIcEENS_9allocatorIcEEEE8ArgumentEEENS5_IS9_EEEixEj)
                  0001fc6e    00000016     Codec.obj (.text:_ZThn8_NSt3__218basic_stringstreamIcNS_11char_traitsIcEENS_9allocatorIcEEED1Ev)
                  0001fc84    00000016     rtsv7M4_T_le_v4SPD16_eabi.lib : strchr.c.obj (.text:strchr)
                  0001fc9a    00000016     empty_pem4f.oem4f (.text:ti_sysbios_BIOS_exitFunc__I)
                  0001fcb0    00000016     ti.uia.loggers.aem4f : LoggerStopMode.oem4f (.text:ti_uia_loggers_LoggerStopMode_disable__E)
                  0001fcc6    00000016                          : LoggerStopMode.oem4f (.text:ti_uia_loggers_LoggerStopMode_enable__E)
                  0001fcdc    00000014     rtsv7M4_T_le_v4SPD16_eabi.lib : locale.cpp.obj (.text:$P$F0)
                  0001fcf0    00000014                                   : locale.cpp.obj (.text:$P$F2)
                  0001fd04    00000014                                   : locale.cpp.obj (.text:$P$F3)
                  0001fd18    00000014                                   : locale.cpp.obj (.text:$P$F4)
                  0001fd2c    00000014                                   : locale.cpp.obj (.text:$P$F5)
                  0001fd40    00000014     driverlib.lib : systick.obj (.text:SysTickEnable)
                  0001fd54    00000014                   : systick.obj (.text:SysTickIntEnable)
                  0001fd68    00000014     isotp_user.obj (.text:_Z17isotp_user_get_msv)
                  0001fd7c    00000014     NetReceive.obj (.text:_ZN10NetReceiveD0Ev)
                  0001fd90    00000014     ArgumentArray.obj (.text:_ZN13ArgumentArrayD0Ev)
                  0001fda4    00000014     Can.obj (.text:_ZN3Can10commStatusEttRt)
                  0001fdb8    00000014     Can.obj (.text:_ZN3Can16sendLocalCommandEhh13ArgumentArrayRS0_)
                  0001fdcc    00000014     Can.obj (.text:_ZN3Can4openEtbRtS0_)
                  0001fde0    00000014     Can.obj (.text:_ZN3Can7openQoSEtbRtS0_R10QosParams_)
                  0001fdf4    00000014     Comm.obj (.text:_ZN4CommD0Ev)
                  0001fe08    00000014     Codec.obj (.text:_ZN5CodecD0Ev)
                  0001fe1c    00000014     Handler.obj (.text:_ZN7HandlerD0Ev)
                  0001fe30    00000014     NetComm.obj (.text:_ZN7NetCommD0Ev)
                  0001fe44    00000014     Receive.obj (.text:_ZN7ReceiveD0Ev)
                  0001fe58    00000014     Handler.obj (.text:_ZNKSt16initializer_listIhE3endEv)
                  0001fe6c    00000014     Handler.obj (.text:_ZNKSt3__213__vector_baseIhNS_9allocatorIhEEE8capacityEv)
                  0001fe80    00000014     Can.obj (.text:_ZNKSt3__219__map_value_compareIiNS_12__value_typeIi12CanMessage_tEENS_4lessIiEELb1EEclERKS3_RKi)
                  0001fe94    00000014     Can.obj (.text:_ZNKSt3__219__map_value_compareIiNS_12__value_typeIi12CanMessage_tEENS_4lessIiEELb1EEclERKiRKS3_)
                  0001fea8    00000014     rtsv7M4_T_le_v4SPD16_eabi.lib : locale.cpp.obj (.text:_ZNKSt3__27codecvtIcciE9do_lengthERiPKcS4_j)
                  0001febc    00000014     Handler.obj (.text:_ZNSt3__210__distanceINS_11__wrap_iterIPhEEEENS_15iterator_traitsIT_E15difference_typeES5_S5_NS_26random_access_iterator_tagE)
                  0001fed0    00000014     ArgumentArray.obj (.text:_ZNSt3__211__wrap_iterIPNS_5tupleIJNS_12basic_stringIcNS_11char_traitsIcEENS_9allocatorIcEEEE8ArgumentEEEEC1ESA_)
                  0001fee4    00000014     ArgumentArray.obj (.text:_ZNSt3__211__wrap_iterIPNS_5tupleIJNS_12basic_stringIcNS_11char_traitsIcEENS_9allocatorIcEEEE8ArgumentEEEEppEv)
                  0001fef8    00000014     Codec.obj (.text:_ZNSt3__211__wrap_iterIPcEppEv)
                  0001ff0c    00000014     Handler.obj (.text:_ZNSt3__211__wrap_iterIPhEC1ES1_)
                  0001ff20    00000014     Handler.obj (.text:_ZNSt3__211__wrap_iterIPhEppEv)
                  0001ff34    00000014     Codec.obj (.text:_ZNSt3__211__wrap_iterIPtEC1ES1_)
                  0001ff48    00000014     Codec.obj (.text:_ZNSt3__211__wrap_iterIPtEppEv)
                  0001ff5c    00000014     main.obj (.text:_ZNSt3__211char_traitsIcE6assignERcRKc)
                  0001ff70    00000014     Can.obj (.text:_ZNSt3__212__tuple_leafILj0EOiLb0EEC1IivEEOT_)
                  0001ff84    00000014     Handler.obj (.text:_ZNSt3__212basic_stringIcNS_11char_traitsIcEENS_9allocatorIcEEE6appendINS_11__wrap_iterIPhEEEENS_9enable_ifIXaasr3std3__221__is_forward_iteratorIT_EE5valuesr3std3__238__libcpp_string_gets_noexcept_iteratorISB_EE5valueERS5_E4typeESB_SB_)
                  0001ff98    00000014     rtsv7M4_T_le_v4SPD16_eabi.lib : ios.cpp.obj (.text:_ZNSt3__213basic_istreamIcNS_11char_traitsIcEEED2Ev)
                  0001ffac    00000014     ArgumentArray.obj (.text:_ZNSt3__213move_iteratorIPNS_5tupleIJNS_12basic_stringIcNS_11char_traitsIcEENS_9allocatorIcEEEE8ArgumentEEEEC1ESA_)
                  0001ffc0    00000014     ArgumentArray.obj (.text:_ZNSt3__213move_iteratorIPNS_5tupleIJNS_12basic_stringIcNS_11char_traitsIcEENS_9allocatorIcEEEE8ArgumentEEEEppEv)
                  0001ffd4    00000014     Can.obj (.text:_ZNSt3__213move_iteratorIPP12CanMessage_tEC1ES3_)
                  0001ffe8    00000014     Can.obj (.text:_ZNSt3__213move_iteratorIPP12CanMessage_tEppEv)
                  0001fffc    00000014     NetReceive.obj (.text:_ZNSt3__213move_iteratorIPP19messageIncomingInfoEC1ES3_)
                  00020010    00000014     NetReceive.obj (.text:_ZNSt3__213move_iteratorIPP19messageIncomingInfoEppEv)
                  00020024    00000014     Can.obj (.text:_ZNSt3__214__map_iteratorINS_15__tree_iteratorINS_12__value_typeIi12CanMessage_tEEPNS_11__tree_nodeIS4_PvEEiEEEC1ES9_)
                  00020038    00000014     ArgumentArray.obj (.text:_ZNSt3__214__split_bufferINS_5tupleIJNS_12basic_stringIcNS_11char_traitsIcEENS_9allocatorIcEEEE8ArgumentEEERNS5_IS9_EEE17__destruct_at_endEPS9_)
                  0002004c    00000014     Can.obj (.text:_ZNSt3__214__split_bufferIP12CanMessage_tNS_9allocatorIS2_EEE17__destruct_at_endEPS2_)
                  00020060    00000014     Can.obj (.text:_ZNSt3__214__split_bufferIP12CanMessage_tNS_9allocatorIS2_EEE19__destruct_at_beginEPS2_)
                  00020074    00000014     Can.obj (.text:_ZNSt3__214__split_bufferIP12CanMessage_tRNS_9allocatorIS2_EEE17__destruct_at_endEPS2_)
                  00020088    00000014     NetReceive.obj (.text:_ZNSt3__214__split_bufferIP19messageIncomingInfoNS_9allocatorIS2_EEE17__destruct_at_endEPS2_)
                  0002009c    00000014     NetReceive.obj (.text:_ZNSt3__214__split_bufferIP19messageIncomingInfoNS_9allocatorIS2_EEE19__destruct_at_beginEPS2_)
                  000200b0    00000014     NetReceive.obj (.text:_ZNSt3__214__split_bufferIP19messageIncomingInfoRNS_9allocatorIS2_EEE17__destruct_at_endEPS2_)
                  000200c4    00000014     ArgumentArray.obj (.text:_ZNSt3__214__split_bufferItRNS_9allocatorItEEE17__destruct_at_endEPt)
                  000200d8    00000014     Can.obj (.text:_ZNSt3__215__tree_iteratorINS_12__value_typeIi12CanMessage_tEEPNS_11__tree_nodeIS3_PvEEiEC1EPNS_15__tree_end_nodeIPNS_16__tree_node_baseIS5_EEEE)
                  000200ec    00000014     Can.obj (.text:_ZNSt3__215__tree_iteratorINS_12__value_typeIi12CanMessage_tEEPNS_11__tree_nodeIS3_PvEEiEC1ES7_)
                  00020100    00000014     Can.obj (.text:_ZNSt3__215__tree_iteratorINS_12__value_typeIi12CanMessage_tEEPNS_11__tree_nodeIS3_PvEEiEppEv)
                  00020114    00000014     Codec.obj (.text:_ZNSt3__215basic_stringbufIcNS_11char_traitsIcEENS_9allocatorIcEEED0Ev)
                  00020128    00000014     Can.obj (.text:_ZNSt3__216allocator_traitsINS_9allocatorI12CanMessage_tEEE10deallocateERS3_PS2_j)
                  0002013c    00000014     Can.obj (.text:_ZNSt3__216allocator_traitsINS_9allocatorI12CanMessage_tEEE7destroyIS2_EEvRS3_PT_)
                  00020150    00000014     Can.obj (.text:_ZNSt3__216allocator_traitsINS_9allocatorI12CanMessage_tEEE9__destroyIS2_EEvNS_17integral_constantIbLb1EEERS3_PT_)
                  00020164    00000014     NetReceive.obj (.text:_ZNSt3__216allocator_traitsINS_9allocatorI19messageIncomingInfoEEE10deallocateERS3_PS2_j)
                  00020178    00000014     NetReceive.obj (.text:_ZNSt3__216allocator_traitsINS_9allocatorI19messageIncomingInfoEEE7destroyIS2_EEvRS3_PT_)
                  0002018c    00000014     NetReceive.obj (.text:_ZNSt3__216allocator_traitsINS_9allocatorI19messageIncomingInfoEEE9__destroyIS2_EEvNS_17integral_constantIbLb1EEERS3_PT_)
                  000201a0    00000014     Can.obj (.text:_ZNSt3__216allocator_traitsINS_9allocatorINS_11__tree_nodeINS_12__value_typeIi12CanMessage_tEEPvEEEEE10deallocateERS8_PS7_j)
                  000201b4    00000014     Can.obj (.text:_ZNSt3__216allocator_traitsINS_9allocatorINS_11__tree_nodeINS_12__value_typeIi12CanMessage_tEEPvEEEEE7destroyINS_4pairIKiS4_EEEEvRS8_PT_)
                  000201c8    00000014     ArgumentArray.obj (.text:_ZNSt3__216allocator_traitsINS_9allocatorINS_5tupleIJNS_12basic_stringIcNS_11char_traitsIcEENS1_IcEEEE8ArgumentEEEEEE10deallocateERSA_PS9_j)
                  000201dc    00000014     ArgumentArray.obj (.text:_ZNSt3__216allocator_traitsINS_9allocatorINS_5tupleIJNS_12basic_stringIcNS_11char_traitsIcEENS1_IcEEEE8ArgumentEEEEEE7destroyIS9_EEvRSA_PT_)
                  000201f0    00000014     ArgumentArray.obj (.text:_ZNSt3__216allocator_traitsINS_9allocatorINS_5tupleIJNS_12basic_stringIcNS_11char_traitsIcEENS1_IcEEEE8ArgumentEEEEEE9__destroyIS9_EEvNS_17integral_constantIbLb1EEERSA_PT_)
                  00020204    00000014     Can.obj (.text:_ZNSt3__216allocator_traitsINS_9allocatorIP12CanMessage_tEEE10deallocateERS4_PS3_j)
                  00020218    00000014     Can.obj (.text:_ZNSt3__216allocator_traitsINS_9allocatorIP12CanMessage_tEEE7destroyIS3_EEvRS4_PT_)
                  0002022c    00000014     Can.obj (.text:_ZNSt3__216allocator_traitsINS_9allocatorIP12CanMessage_tEEE9__destroyIS3_EEvNS_17integral_constantIbLb1EEERS4_PT_)
                  00020240    00000014     NetReceive.obj (.text:_ZNSt3__216allocator_traitsINS_9allocatorIP19messageIncomingInfoEEE10deallocateERS4_PS3_j)
                  00020254    00000014     NetReceive.obj (.text:_ZNSt3__216allocator_traitsINS_9allocatorIP19messageIncomingInfoEEE7destroyIS3_EEvRS4_PT_)
                  00020268    00000014     NetReceive.obj (.text:_ZNSt3__216allocator_traitsINS_9allocatorIP19messageIncomingInfoEEE9__destroyIS3_EEvNS_17integral_constantIbLb1EEERS4_PT_)
                  0002027c    00000014     Handler.obj (.text:_ZNSt3__216allocator_traitsINS_9allocatorIhEEE10deallocateERS2_Phj)
                  00020290    00000014     Handler.obj (.text:_ZNSt3__216allocator_traitsINS_9allocatorIhEEE7destroyIhEEvRS2_PT_)
                  000202a4    00000014     Handler.obj (.text:_ZNSt3__216allocator_traitsINS_9allocatorIhEEE9__destroyIhEEvNS_17integral_constantIbLb1EEERS2_PT_)
                  000202b8    00000014     ArgumentArray.obj (.text:_ZNSt3__216allocator_traitsINS_9allocatorItEEE10deallocateERS2_Ptj)
                  000202cc    00000014     ArgumentArray.obj (.text:_ZNSt3__216allocator_traitsINS_9allocatorItEEE7destroyItEEvRS2_PT_)
                  000202e0    00000014     ArgumentArray.obj (.text:_ZNSt3__216allocator_traitsINS_9allocatorItEEE9__destroyItEEvNS_17integral_constantIbLb1EEERS2_PT_)
                  000202f4    00000014     Can.obj (.text:_ZNSt3__217__compressed_pairINS_15__tree_end_nodeIPNS_16__tree_node_baseIPvEEEENS_9allocatorINS_11__tree_nodeINS_12__value_typeIi12CanMessage_tEES3_EEEEEC1ILb1EvEEv)
                  00020308    00000014     Codec.obj (.text:_ZNSt3__218basic_stringstreamIcNS_11char_traitsIcEENS_9allocatorIcEEED0Ev)
                  0002031c    00000014     Can.obj (.text:_ZNSt3__221__tree_const_iteratorINS_12__value_typeIi12CanMessage_tEEPNS_11__tree_nodeIS3_PvEEiEC1ENS_15__tree_iteratorIS3_S7_iEE)
                  00020330    00000014     ArgumentArray.obj (.text:_ZNSt3__222__compressed_pair_elemIRNS_9allocatorINS_5tupleIJNS_12basic_stringIcNS_11char_traitsIcEENS1_IcEEEE8ArgumentEEEEELi1ELb0EEC1ISB_vEEOT_)
                  00020344    00000014     Can.obj (.text:_ZNSt3__222__compressed_pair_elemIRNS_9allocatorIP12CanMessage_tEELi1ELb0EEC1IS5_vEEOT_)
                  00020358    00000014     NetReceive.obj (.text:_ZNSt3__222__compressed_pair_elemIRNS_9allocatorIP19messageIncomingInfoEELi1ELb0EEC1IS5_vEEOT_)
                  0002036c    00000014     ArgumentArray.obj (.text:_ZNSt3__222__compressed_pair_elemIRNS_9allocatorItEELi1ELb0EEC1IS3_vEEOT_)
                  00020380    00000014     Codec.obj (.text:_ZNSt3__23maxIPcEERKT_S4_S4_)
                  00020394    00000014     ArgumentArray.obj (.text:_ZNSt3__23maxIjEERKT_S3_S3_)
                  000203a8    00000014     ArgumentArray.obj (.text:_ZNSt3__23minIjEERKT_S3_S3_)
                  000203bc    00000014     Handler.obj (.text:_ZNSt3__28distanceINS_11__wrap_iterIPhEEEENS_15iterator_traitsIT_E15difference_typeES5_S5_)
                  000203d0    00000014     Codec.obj (.text:_ZNSt3__28distanceIPcEENS_15iterator_traitsIT_E15difference_typeES3_S3_)
                  000203e4    00000014     rtsv7M4_T_le_v4SPD16_eabi.lib : locale.cpp.obj (.text:_ZNSt3__28time_putIcNS_19ostreambuf_iteratorIcNS_11char_traitsIcEEEEED1Ev)
                  000203f8    00000014                                   : locale.cpp.obj (.text:_ZNSt3__28time_putIwNS_19ostreambuf_iteratorIwNS_11char_traitsIwEEEEED1Ev)
                  0002040c    00000014                                   : strcpy.c.obj (.text:strcpy)
                  00020420    00000014                                   : strlen.c.obj (.text:strlen)
                  00020434    00000004                                   : string.cpp.obj (.text:_ZNSt3__211char_traitsIwE6lengthEPKw)
                  00020438    00000014     sysbios.aem4f : BIOS.obj (.text:ti_sysbios_family_arm_m3_Hwi_switchFromBootStack__E)
                  0002044c    00000014     empty_pem4f.oem4f (.text:ti_sysbios_hal_Hwi_HwiProxy_getStackInfo__E)
                  00020460    00000014     empty_pem4f.oem4f (.text:ti_sysbios_knl_Clock_Module_State_clockQ)
                  00020474    00000014     rtsv7M4_T_le_v4SPD16_eabi.lib : wmemset.c.obj (.text:wmemset)
                  00020488    00000014     empty_pem4f.oem4f (.text:xdc_runtime_Memory_HeapProxy_free__E)
                  0002049c    00000012     driverlib.lib : gpio.obj (.text:GPIOPinTypeCAN)
                  000204ae    00000012     Can.obj (.text:_ZN3Can10leaveGroupEtt)
                  000204c0    00000012     Can.obj (.text:_ZN3Can9joinGroupEtt)
                  000204d2    00000012     NetComm.obj (.text:_ZN7NetComm18registerNetReceiveEP10NetReceive)
                  000204e4    00000012     Can.obj (.text:_ZNKSt3__215__tree_iteratorINS_12__value_typeIi12CanMessage_tEEPNS_11__tree_nodeIS3_PvEEiEptEv)
                  000204f6    00000012     Codec.obj (.text:_ZNKSt3__218basic_stringstreamIcNS_11char_traitsIcEENS_9allocatorIcEEE3strEv)
                  00020508    00000012     Can.obj (.text:_ZNKSt3__26__treeINS_12__value_typeIi12CanMessage_tEENS_19__map_value_compareIiS3_NS_4lessIiEELb1EEENS_9allocatorIS3_EEE10__end_nodeEv)
                  0002051a    00000012     ArgumentArray.obj (.text:_ZNSt3__211__wrap_iterIPNS_5tupleIJNS_12basic_stringIcNS_11char_traitsIcEENS_9allocatorIcEEEE8ArgumentEEEEC1Ev)
                  0002052c    00000012     ArgumentArray.obj (.text:_ZNSt3__212__tuple_leafILj0ENS_12basic_stringIcNS_11char_traitsIcEENS_9allocatorIcEEEELb0EEC1EOS7_)
                  0002053e    00000012     ArgumentArray.obj (.text:_ZNSt3__212__tuple_leafILj1E8ArgumentLb0EEC1EOS2_)
                  00020550    00000012     rtsv7M4_T_le_v4SPD16_eabi.lib : ios.cpp.obj (.text:_ZNSt3__213basic_ostreamIcNS_11char_traitsIcEEED2Ev)
                  00020562    00000012     Can.obj (.text:_ZNSt3__214__split_bufferIP12CanMessage_tNS_9allocatorIS2_EEE9pop_frontEv)
                  00020574    00000012     NetReceive.obj (.text:_ZNSt3__214__split_bufferIP19messageIncomingInfoNS_9allocatorIS2_EEE9pop_frontEv)
                  00020586    00000012     Can.obj (.text:_ZNSt3__215__tree_end_nodeIPNS_16__tree_node_baseIPvEEEC1Ev)
                  00020598    00000012     Can.obj (.text:_ZNSt3__216__tree_node_baseIPvE12__set_parentEPS2_)
                  000205aa    00000012     Can.obj (.text:_ZNSt3__216allocator_traitsINS_9allocatorI12CanMessage_tEEE8allocateERS3_j)
                  000205bc    00000012     NetReceive.obj (.text:_ZNSt3__216allocator_traitsINS_9allocatorI19messageIncomingInfoEEE8allocateERS3_j)
                  000205ce    00000012     Can.obj (.text:_ZNSt3__216allocator_traitsINS_9allocatorINS_11__tree_nodeINS_12__value_typeIi12CanMessage_tEEPvEEEEE8allocateERS8_j)
                  000205e0    00000012     Can.obj (.text:_ZNSt3__216allocator_traitsINS_9allocatorINS_11__tree_nodeINS_12__value_typeIi12CanMessage_tEEPvEEEEE9__destroyINS_4pairIKiS4_EEEEvNS_17integral_constantIbLb0EEERS8_PT_)
                  000205f2    00000012     ArgumentArray.obj (.text:_ZNSt3__216allocator_traitsINS_9allocatorINS_5tupleIJNS_12basic_stringIcNS_11char_traitsIcEENS1_IcEEEE8ArgumentEEEEEE8allocateERSA_j)
                  00020604    00000012     Can.obj (.text:_ZNSt3__216allocator_traitsINS_9allocatorIP12CanMessage_tEEE8allocateERS4_j)
                  00020616    00000012     NetReceive.obj (.text:_ZNSt3__216allocator_traitsINS_9allocatorIP19messageIncomingInfoEEE8allocateERS4_j)
                  00020628    00000012     main.obj (.text:_ZNSt3__216allocator_traitsINS_9allocatorIcEEE8allocateERS2_j)
                  0002063a    00000012     Handler.obj (.text:_ZNSt3__216allocator_traitsINS_9allocatorIhEEE8allocateERS2_j)
                  0002064c    00000012     ArgumentArray.obj (.text:_ZNSt3__216allocator_traitsINS_9allocatorItEEE8allocateERS2_j)
                  0002065e    00000012     main.obj (.text:_ZNSt3__222__compressed_pair_elemINS_12basic_stringIcNS_11char_traitsIcEENS_9allocatorIcEEE5__repELi0ELb0EEC1Ev)
                  00020670    00000012     ArgumentArray.obj (.text:_ZNSt3__25tupleIJNS_12basic_stringIcNS_11char_traitsIcEENS_9allocatorIcEEEE8ArgumentEEC1EOS8_)
                  00020682    00000012     ArgumentArray.obj (.text:_ZNSt3__25tupleIJNS_12basic_stringIcNS_11char_traitsIcEENS_9allocatorIcEEEE8ArgumentEEaSEOS8_)
                  00020694    00000012     Can.obj (.text:_ZNSt3__26__treeINS_12__value_typeIi12CanMessage_tEENS_19__map_value_compareIiS3_NS_4lessIiEELb1EEENS_9allocatorIS3_EEE10__end_nodeEv)
                  000206a6    00000012     ArgumentArray.obj (.text:_ZNSt3__26vectorINS_5tupleIJNS_12basic_stringIcNS_11char_traitsIcEENS_9allocatorIcEEEE8ArgumentEEENS5_IS9_EEE11__make_iterEPS9_)
                  000206b8    00000012     Handler.obj (.text:_ZNSt3__26vectorIhNS_9allocatorIhEEE11__make_iterEPh)
                  000206ca    00000012     Codec.obj (.text:_ZNSt3__26vectorItNS_9allocatorItEEE11__make_iterEPt)
                  000206dc    00000012     Codec.obj (.text:_ZThn8_NSt3__218basic_stringstreamIcNS_11char_traitsIcEENS_9allocatorIcEEED0Ev)
                  000206ee    00000012     rtsv7M4_T_le_v4SPD16_eabi.lib : sscanf.c.obj (.text:_inpchar)
                  00020700    00000012     sysbios.aem4f : BIOS.obj (.text:ti_sysbios_hal_Hwi_Module_startup__E)
                  00020712    00000012     empty_pem4f.oem4f (.text:ti_uia_loggers_LoggerStopMode_setFilterLevel__E)
                  00020724    00000012     rtsv7M4_T_le_v4SPD16_eabi.lib : wcslen.c.obj (.text:wcslen)
                  00020736    00000002     --HOLE-- [fill = 0]
                  00020738    00000010     empty_pem4f.oem4f (.text:.bootCodeSection:ti_catalog_arm_cortexm4_tiva_ce_Boot_init__I)
                  00020748    00000010     driverlib.lib : systick.obj (.text:SysTickPeriodSet)
                  00020758    00000010     isotp_user.obj (.text:_Z10SycTickIntv)
                  00020768    00000010     main.obj (.text:_Z14CanTaskWrapperv)
                  00020778    00000010     Can.obj (.text:_ZN12CanMessage_tC1Ev)
                  00020788    00000010     Can.obj (.text:_ZN12CanMessage_tD1Ev)
                  00020798    00000010     ArgumentArray.obj (.text:_ZN13ArgumentArray4sizeEv)
                  000207a8    00000010     ArgumentArray.obj (.text:_ZN13ArgumentArrayD1Ev)
                  000207b8    00000010     Can.obj (.text:_ZN3Can12lookupDestIdEtRt)
                  000207c8    00000010     Can.obj (.text:_ZN3Can14setPayloadSizeEtj)
                  000207d8    00000010     Can.obj (.text:_ZN3Can17sendRemoteCommandEt12TimeDurationhh13ArgumentArrayRS1_)
                  000207e8    00000010     Can.obj (.text:_ZN3Can22getRemoteConfigurationEt12TimeDurationR13ArgumentArray)
                  000207f8    00000010     Can.obj (.text:_ZN3Can22setRemoteConfigurationEt12TimeDuration13ArgumentArray)
                  00020808    00000010     Can.obj (.text:_ZN3Can7readRspEt12TimeDurationtjRNSt3__212basic_stringIcNS1_11char_traitsIcEENS1_9allocatorIcEEEERb)
                  00020818    00000010     Can.obj (.text:_ZN3Can8describeERhS0_RNSt3__212basic_stringIcNS1_11char_traitsIcEENS1_9allocatorIcEEEE)
                  00020828    00000010     Can.obj (.text:_ZN3Can8readSizeEtRj)
                  00020838    00000010     Codec.obj (.text:_ZN5Codec24octetArray2ArgumentArrayER13ArgumentArrayNSt3__212basic_stringIcNS2_11char_traitsIcEENS2_9allocatorIcEEEE)
                  00020848    00000010     Handler.obj (.text:_ZN7HandlerD1Ev)
                  00020858    00000010     Codec.obj (.text:_ZNKSt3__24fposIiEcvxEv)
                  00020868    00000010     Can.obj (.text:_ZNKSt3__26__treeINS_12__value_typeIi12CanMessage_tEENS_19__map_value_compareIiS3_NS_4lessIiEELb1EEENS_9allocatorIS3_EEE10__root_ptrEv)
                  00020878    00000010     ArgumentArray.obj (.text:_ZNKSt3__26vectorINS_5tupleIJNS_12basic_stringIcNS_11char_traitsIcEENS_9allocatorIcEEEE8ArgumentEEENS5_IS9_EEE31__annotate_contiguous_containerEPKvSD_SD_SD_)
                  00020888    00000010     Handler.obj (.text:_ZNKSt3__26vectorIhNS_9allocatorIhEEE31__annotate_contiguous_containerEPKvS5_S5_S5_)
                  00020898    00000010     ArgumentArray.obj (.text:_ZNKSt3__26vectorItNS_9allocatorItEEE31__annotate_contiguous_containerEPKvS5_S5_S5_)
                  000208a8    00000010     rtsv7M4_T_le_v4SPD16_eabi.lib : locale.cpp.obj (.text:_ZNKSt3__27num_getIcNS_19istreambuf_iteratorIcNS_11char_traitsIcEEEEE6do_getES4_S4_RNS_8ios_baseERjRd)
                  000208b8    00000010                                   : locale.cpp.obj (.text:_ZNKSt3__27num_getIcNS_19istreambuf_iteratorIcNS_11char_traitsIcEEEEE6do_getES4_S4_RNS_8ios_baseERjRe)
                  000208c8    00000010                                   : locale.cpp.obj (.text:_ZNKSt3__27num_getIcNS_19istreambuf_iteratorIcNS_11char_traitsIcEEEEE6do_getES4_S4_RNS_8ios_baseERjRf)
                  000208d8    00000010                                   : locale.cpp.obj (.text:_ZNKSt3__27num_getIcNS_19istreambuf_iteratorIcNS_11char_traitsIcEEEEE6do_getES4_S4_RNS_8ios_baseERjRl)
                  000208e8    00000010                                   : locale.cpp.obj (.text:_ZNKSt3__27num_getIcNS_19istreambuf_iteratorIcNS_11char_traitsIcEEEEE6do_getES4_S4_RNS_8ios_baseERjRm)
                  000208f8    00000010                                   : locale.cpp.obj (.text:_ZNKSt3__27num_getIcNS_19istreambuf_iteratorIcNS_11char_traitsIcEEEEE6do_getES4_S4_RNS_8ios_baseERjRt)
                  00020908    00000010                                   : locale.cpp.obj (.text:_ZNKSt3__27num_getIcNS_19istreambuf_iteratorIcNS_11char_traitsIcEEEEE6do_getES4_S4_RNS_8ios_baseERjRx)
                  00020918    00000010                                   : locale.cpp.obj (.text:_ZNKSt3__27num_getIcNS_19istreambuf_iteratorIcNS_11char_traitsIcEEEEE6do_getES4_S4_RNS_8ios_baseERjRy)
                  00020928    00000010                                   : locale.cpp.obj (.text:_ZNKSt3__27num_getIcNS_19istreambuf_iteratorIcNS_11char_traitsIcEEEEE6do_getES4_S4_RNS_8ios_baseERjS8_)
                  00020938    00000010                                   : locale.cpp.obj (.text:_ZNKSt3__27num_getIwNS_19istreambuf_iteratorIwNS_11char_traitsIwEEEEE6do_getES4_S4_RNS_8ios_baseERjRd)
                  00020948    00000010                                   : locale.cpp.obj (.text:_ZNKSt3__27num_getIwNS_19istreambuf_iteratorIwNS_11char_traitsIwEEEEE6do_getES4_S4_RNS_8ios_baseERjRe)
                  00020958    00000010                                   : locale.cpp.obj (.text:_ZNKSt3__27num_getIwNS_19istreambuf_iteratorIwNS_11char_traitsIwEEEEE6do_getES4_S4_RNS_8ios_baseERjRf)
                  00020968    00000010                                   : locale.cpp.obj (.text:_ZNKSt3__27num_getIwNS_19istreambuf_iteratorIwNS_11char_traitsIwEEEEE6do_getES4_S4_RNS_8ios_baseERjRl)
                  00020978    00000010                                   : locale.cpp.obj (.text:_ZNKSt3__27num_getIwNS_19istreambuf_iteratorIwNS_11char_traitsIwEEEEE6do_getES4_S4_RNS_8ios_baseERjRm)
                  00020988    00000010                                   : locale.cpp.obj (.text:_ZNKSt3__27num_getIwNS_19istreambuf_iteratorIwNS_11char_traitsIwEEEEE6do_getES4_S4_RNS_8ios_baseERjRt)
                  00020998    00000010                                   : locale.cpp.obj (.text:_ZNKSt3__27num_getIwNS_19istreambuf_iteratorIwNS_11char_traitsIwEEEEE6do_getES4_S4_RNS_8ios_baseERjRx)
                  000209a8    00000010                                   : locale.cpp.obj (.text:_ZNKSt3__27num_getIwNS_19istreambuf_iteratorIwNS_11char_traitsIwEEEEE6do_getES4_S4_RNS_8ios_baseERjRy)
                  000209b8    00000010                                   : locale.cpp.obj (.text:_ZNKSt3__27num_getIwNS_19istreambuf_iteratorIwNS_11char_traitsIwEEEEE6do_getES4_S4_RNS_8ios_baseERjS8_)
                  000209c8    00000010     Can.obj (.text:_ZNKSt3__29allocatorINS_11__tree_nodeINS_12__value_typeIi12CanMessage_tEEPvEEE8max_sizeEv)
                  000209d8    00000010     Can.obj (.text:_ZNSt3__210unique_ptrINS_11__tree_nodeINS_12__value_typeIi12CanMessage_tEEPvEENS_22__tree_node_destructorINS_9allocatorIS6_EEEEED1Ev)
                  000209e8    00000010     Can.obj (.text:_ZNSt3__210unique_ptrIP12CanMessage_tNS_22__allocator_destructorINS_9allocatorIS1_EEEEED1Ev)
                  000209f8    00000010     NetReceive.obj (.text:_ZNSt3__210unique_ptrIP19messageIncomingInfoNS_22__allocator_destructorINS_9allocatorIS1_EEEEED1Ev)
                  00020a08    00000010     rtsv7M4_T_le_v4SPD16_eabi.lib : locale.cpp.obj (.text:_ZNSt3__210unique_ptrIcPFvPvEE5resetEPc)
                  00020a18    00000010                                   : locale.cpp.obj (.text:_ZNSt3__210unique_ptrIhPFvPvEE5resetEPh)
                  00020a28    00000010                                   : locale.cpp.obj (.text:_ZNSt3__210unique_ptrIwPFvPvEE5resetEPw)
                  00020a38    00000010     Codec.obj (.text:_ZNSt3__211char_traitsIcE11to_int_typeEc)
                  00020a48    00000010     ArgumentArray.obj (.text:_ZNSt3__212__tuple_leafILj0ENS_12basic_stringIcNS_11char_traitsIcEENS_9allocatorIcEEEELb0EEC2EOS7_)
                  00020a58    00000010     ArgumentArray.obj (.text:_ZNSt3__212__tuple_leafILj0ENS_12basic_stringIcNS_11char_traitsIcEENS_9allocatorIcEEEELb0EEC2IRA1_KcvEEOT_)
                  00020a68    00000010     Can.obj (.text:_ZNSt3__212__tuple_leafILj0EOiLb0EEC2IivEEOT_)
                  00020a78    00000010     ArgumentArray.obj (.text:_ZNSt3__212__tuple_leafILj1E8ArgumentLb0EEC2EOS2_)
                  00020a88    00000010     ArgumentArray.obj (.text:_ZNSt3__212__tuple_leafILj1E8ArgumentLb0EEC2IRS1_vEEOT_)
                  00020a98    00000010     rtsv7M4_T_le_v4SPD16_eabi.lib : string.cpp.obj (.text:_ZNSt3__212basic_stringIcNS_11char_traitsIcEENS_9allocatorIcEEE11__recommendEj)
                  00020aa8    00000010                                   : string.cpp.obj (.text:_ZNSt3__212basic_stringIcNS_11char_traitsIcEENS_9allocatorIcEEE14__set_long_capEj)
                  00020ab8    00000010     ArgumentArray.obj (.text:_ZNSt3__213__vector_baseINS_5tupleIJNS_12basic_stringIcNS_11char_traitsIcEENS_9allocatorIcEEEE8ArgumentEEENS5_IS9_EEE5clearEv)
                  00020ac8    00000010     Handler.obj (.text:_ZNSt3__213__vector_baseIhNS_9allocatorIhEEE5clearEv)
                  00020ad8    00000010     Codec.obj (.text:_ZNSt3__213__vector_baseItNS_9allocatorItEEE5clearEv)
                  00020ae8    00000010     Handler.obj (.text:_ZNSt3__214__ptr_in_rangeIhcEEbPKT_PKT0_S6_)
                  00020af8    00000010     ArgumentArray.obj (.text:_ZNSt3__214__split_bufferINS_5tupleIJNS_12basic_stringIcNS_11char_traitsIcEENS_9allocatorIcEEEE8ArgumentEEERNS5_IS9_EEE5clearEv)
                  00020b08    00000010     Can.obj (.text:_ZNSt3__214__split_bufferIP12CanMessage_tNS_9allocatorIS2_EEE5clearEv)
                  00020b18    00000010     Can.obj (.text:_ZNSt3__214__split_bufferIP12CanMessage_tRNS_9allocatorIS2_EEE5clearEv)
                  00020b28    00000010     NetReceive.obj (.text:_ZNSt3__214__split_bufferIP19messageIncomingInfoNS_9allocatorIS2_EEE5clearEv)
                  00020b38    00000010     NetReceive.obj (.text:_ZNSt3__214__split_bufferIP19messageIncomingInfoRNS_9allocatorIS2_EEE5clearEv)
                  00020b48    00000010     ArgumentArray.obj (.text:_ZNSt3__214__split_bufferItRNS_9allocatorItEEE5clearEv)
                  00020b58    00000010     ArgumentArray.obj (.text:_ZNSt3__216allocator_traitsINS_9allocatorINS_5tupleIJNS_12basic_stringIcNS_11char_traitsIcEENS1_IcEEEE8ArgumentEEEEEE10__max_sizeENS_17integral_constantIbLb1EEERKSA_)
                  00020b68    00000010     ArgumentArray.obj (.text:_ZNSt3__216allocator_traitsINS_9allocatorINS_5tupleIJNS_12basic_stringIcNS_11char_traitsIcEENS1_IcEEEE8ArgumentEEEEEE8max_sizeERKSA_)
                  00020b78    00000010     Handler.obj (.text:_ZNSt3__216allocator_traitsINS_9allocatorIhEEE10__max_sizeENS_17integral_constantIbLb1EEERKS2_)
                  00020b88    00000010     Handler.obj (.text:_ZNSt3__216allocator_traitsINS_9allocatorIhEEE8max_sizeERKS2_)
                  00020b98    00000010     ArgumentArray.obj (.text:_ZNSt3__216allocator_traitsINS_9allocatorItEEE10__max_sizeENS_17integral_constantIbLb1EEERKS2_)
                  00020ba8    00000010     ArgumentArray.obj (.text:_ZNSt3__216allocator_traitsINS_9allocatorItEEE8max_sizeERKS2_)
                  00020bb8    00000010     Can.obj (.text:_ZNSt3__219__map_value_compareIiNS_12__value_typeIi12CanMessage_tEENS_4lessIiEELb1EEC1ES5_)
                  00020bc8    00000010     rtsv7M4_T_le_v4SPD16_eabi.lib : string.cpp.obj (.text:_ZNSt3__222__compressed_pair_elemINS_12basic_stringIwNS_11char_traitsIwEENS_9allocatorIwEEE5__repELi0ELb0EEC1Ev)
                  00020bd8    00000010     Can.obj (.text:_ZNSt3__222__compressed_pair_elemINS_19__map_value_compareIiNS_12__value_typeIi12CanMessage_tEENS_4lessIiEELb1EEELi1ELb1EEC1IRKS7_vEEOT_)
                  00020be8    00000010     Can.obj (.text:_ZNSt3__222__compressed_pair_elemINS_19__map_value_compareIiNS_12__value_typeIi12CanMessage_tEENS_4lessIiEELb1EEELi1ELb1EEC2IRKS7_vEEOT_)
                  00020bf8    00000010     Can.obj (.text:_ZNSt3__222__compressed_pair_elemINS_22__allocator_destructorINS_9allocatorI12CanMessage_tEEEELi1ELb0EEC2IS5_vEEOT_)
                  00020c08    00000010     NetReceive.obj (.text:_ZNSt3__222__compressed_pair_elemINS_22__allocator_destructorINS_9allocatorI19messageIncomingInfoEEEELi1ELb0EEC2IS5_vEEOT_)
                  00020c18    00000010     Can.obj (.text:_ZNSt3__222__compressed_pair_elemINS_22__tree_node_destructorINS_9allocatorINS_11__tree_nodeINS_12__value_typeIi12CanMessage_tEEPvEEEEEELi1ELb0EEC2ISA_vEEOT_)
                  00020c28    00000010     Handler.obj (.text:_ZNSt3__222__compressed_pair_elemINS_9allocatorIcEELi1ELb1EEC1IRKS2_vEEOT_)
                  00020c38    00000010     Handler.obj (.text:_ZNSt3__222__compressed_pair_elemINS_9allocatorIcEELi1ELb1EEC2IRKS2_vEEOT_)
                  00020c48    00000010     Can.obj (.text:_ZNSt3__222__compressed_pair_elemIP12CanMessage_tLi0ELb0EEC2IRS2_vEEOT_)
                  00020c58    00000010     NetReceive.obj (.text:_ZNSt3__222__compressed_pair_elemIP19messageIncomingInfoLi0ELb0EEC2IRS2_vEEOT_)
                  00020c68    00000010     Can.obj (.text:_ZNSt3__222__compressed_pair_elemIPNS_11__tree_nodeINS_12__value_typeIi12CanMessage_tEEPvEELi0ELb0EEC2IRS7_vEEOT_)
                  00020c78    00000010     Can.obj (.text:_ZNSt3__222__compressed_pair_elemIPNS_11__tree_nodeINS_12__value_typeIi12CanMessage_tEEPvEELi0ELb0EEC2IS7_vEEOT_)
                  00020c88    00000010     ArgumentArray.obj (.text:_ZNSt3__222__compressed_pair_elemIPNS_5tupleIJNS_12basic_stringIcNS_11char_traitsIcEENS_9allocatorIcEEEE8ArgumentEEELi0ELb0EEC2IDnvEEOT_)
                  00020c98    00000010     Can.obj (.text:_ZNSt3__222__compressed_pair_elemIPP12CanMessage_tLi0ELb0EEC2IDnvEEOT_)
                  00020ca8    00000010     NetReceive.obj (.text:_ZNSt3__222__compressed_pair_elemIPP19messageIncomingInfoLi0ELb0EEC2IDnvEEOT_)
                  00020cb8    00000010     Handler.obj (.text:_ZNSt3__222__compressed_pair_elemIPhLi0ELb0EEC2IDnvEEOT_)
                  00020cc8    00000010     ArgumentArray.obj (.text:_ZNSt3__222__compressed_pair_elemIPtLi0ELb0EEC2IDnvEEOT_)
                  00020cd8    00000010     ArgumentArray.obj (.text:_ZNSt3__222__compressed_pair_elemIRNS_9allocatorINS_5tupleIJNS_12basic_stringIcNS_11char_traitsIcEENS1_IcEEEE8ArgumentEEEEELi1ELb0EEC2ISB_vEEOT_)
                  00020ce8    00000010     Can.obj (.text:_ZNSt3__222__compressed_pair_elemIRNS_9allocatorIP12CanMessage_tEELi1ELb0EEC2IS5_vEEOT_)
                  00020cf8    00000010     NetReceive.obj (.text:_ZNSt3__222__compressed_pair_elemIRNS_9allocatorIP19messageIncomingInfoEELi1ELb0EEC2IS5_vEEOT_)
                  00020d08    00000010     ArgumentArray.obj (.text:_ZNSt3__222__compressed_pair_elemIRNS_9allocatorItEELi1ELb0EEC2IS3_vEEOT_)
                  00020d18    00000010     Can.obj (.text:_ZNSt3__222__compressed_pair_elemIjLi0ELb0EEC2IivEEOT_)
                  00020d28    00000010     Can.obj (.text:_ZNSt3__24pairIKi12CanMessage_tED1Ev)
                  00020d38    00000010     Can.obj (.text:_ZNSt3__24pairIi12CanMessage_tED1Ev)
                  00020d48    00000010     Can.obj (.text:_ZNSt3__25queueI12CanMessage_tNS_5dequeIS1_NS_9allocatorIS1_EEEEE4pushERKS1_)
                  00020d58    00000010     NetReceive.obj (.text:_ZNSt3__25queueI19messageIncomingInfoNS_5dequeIS1_NS_9allocatorIS1_EEEEE4pushERKS1_)
                  00020d68    00000010     rtsv7M4_T_le_v4SPD16_eabi.lib : locale.cpp.obj (.text:_ZNSt3__26locale2id6__initEv)
                  00020d78    00000010     ArgumentArray.obj (.text:_ZNSt3__26vectorINS_5tupleIJNS_12basic_stringIcNS_11char_traitsIcEENS_9allocatorIcEEEE8ArgumentEEENS5_IS9_EEE24__RAII_IncreaseAnnotatorC1ERKSB_j)
                  00020d88    00000010     ArgumentArray.obj (.text:_ZNSt3__26vectorINS_5tupleIJNS_12basic_stringIcNS_11char_traitsIcEENS_9allocatorIcEEEE8ArgumentEEENS5_IS9_EEE3endEv)
                  00020d98    00000010     ArgumentArray.obj (.text:_ZNSt3__26vectorINS_5tupleIJNS_12basic_stringIcNS_11char_traitsIcEENS_9allocatorIcEEEE8ArgumentEEENS5_IS9_EEE5beginEv)
                  00020da8    00000010     Handler.obj (.text:_ZNSt3__26vectorIhNS_9allocatorIhEEE24__RAII_IncreaseAnnotatorC1ERKS3_j)
                  00020db8    00000010     Handler.obj (.text:_ZNSt3__26vectorIhNS_9allocatorIhEEE3endEv)
                  00020dc8    00000010     Handler.obj (.text:_ZNSt3__26vectorIhNS_9allocatorIhEEE5beginEv)
                  00020dd8    00000010     ArgumentArray.obj (.text:_ZNSt3__26vectorItNS_9allocatorItEEE24__RAII_IncreaseAnnotatorC1ERKS3_j)
                  00020de8    00000010     Codec.obj (.text:_ZNSt3__26vectorItNS_9allocatorItEEE3endEv)
                  00020df8    00000010     Codec.obj (.text:_ZNSt3__26vectorItNS_9allocatorItEEE5beginEv)
                  00020e08    00000010     Can.obj (.text:_ZNSt3__29allocatorI12CanMessage_tE10deallocateEPS1_j)
                  00020e18    00000010     NetReceive.obj (.text:_ZNSt3__29allocatorI19messageIncomingInfoE10deallocateEPS1_j)
                  00020e28    00000010     Can.obj (.text:_ZNSt3__29allocatorINS_11__tree_nodeINS_12__value_typeIi12CanMessage_tEEPvEEE10deallocateEPS6_j)
                  00020e38    00000010     ArgumentArray.obj (.text:_ZNSt3__29allocatorINS_5tupleIJNS_12basic_stringIcNS_11char_traitsIcEENS0_IcEEEE8ArgumentEEEE10deallocateEPS8_j)
                  00020e48    00000010     Can.obj (.text:_ZNSt3__29allocatorIP12CanMessage_tE10deallocateEPS2_j)
                  00020e58    00000010     NetReceive.obj (.text:_ZNSt3__29allocatorIP19messageIncomingInfoE10deallocateEPS2_j)
                  00020e68    00000010     Handler.obj (.text:_ZNSt3__29allocatorIhE10deallocateEPhj)
                  00020e78    00000010     ArgumentArray.obj (.text:_ZNSt3__29allocatorItE10deallocateEPtj)
                  00020e88    00000010     rtsv7M4_T_le_v4SPD16_eabi.lib : none_mb.c.obj (.text:mbsrtowcs)
                  00020e98    00000010                                   : locale_stdlib.c.obj (.text:strtod_l)
                  00020ea8    00000010                                   : locale_stdlib.c.obj (.text:strtold_l)
                  00020eb8    00000010     empty_pem4f.oem4f (.text:ti_sysbios_BIOS_RtsGateProxy_leave__E)
                  00020ec8    00000010     sysbios.aem4f : BIOS.obj (.text:ti_sysbios_BIOS_getCpuFreq__E)
                  00020ed8    00000010                   : BIOS.obj (.text:ti_sysbios_BIOS_setThreadType__E)
                  00020ee8    00000010                   : BIOS.obj (.text:ti_sysbios_BIOS_start__E)
                  00020ef8    00000010                   : BIOS.obj (.text:ti_sysbios_family_arm_lm4_TimestampProvider_rolloverFunc__E)
                  00020f08    00000010                   : m3_TaskSupport_asm.obj (.text:ti_sysbios_family_arm_m3_TaskSupport_glue)
                  00020f18    00000010                   : BIOS.obj (.text:ti_sysbios_gates_GateMutex_Instance_finalize__E)
                  00020f28    00000010     empty_pem4f.oem4f (.text:ti_sysbios_heaps_HeapMem_Module_GateProxy_leave__E)
                  00020f38    00000010     sysbios.aem4f : BIOS.obj (.text:ti_sysbios_knl_Semaphore_Instance_finalize__E)
                  00020f48    00000010                   : BIOS.obj (.text:ti_sysbios_knl_Swi_disable__E)
                  00020f58    00000010     empty_pem4f.oem4f (.text:ti_sysbios_knl_Task_SupportProxy_checkStack__E)
                  00020f68    00000010     empty_pem4f.oem4f (.text:ti_sysbios_knl_Task_SupportProxy_swap__E)
                  00020f78    00000010     sysbios.aem4f : BIOS.obj (.text:ti_sysbios_knl_Task_disable__E)
                  00020f88    00000010     empty_pem4f.oem4f (.text:ti_uia_loggers_LoggerStopMode_getFilterLevel__E)
                  00020f98    00000010     ti.uia.loggers.aem4f : LoggerStopMode.oem4f (.text:ti_uia_loggers_LoggerStopMode_isEmpty__E)
                  00020fa8    00000010     ti.targets.arm.rtsarm.aem4f : Gate.oem4f (.text:xdc_runtime_Gate_leaveSystem__E)
                  00020fb8    00000010                                 : Memory.oem4f (.text:xdc_runtime_Memory_free__E)
                  00020fc8    00000010                                 : SysMin.oem4f (.text:xdc_runtime_SysMin_ready__E)
                  00020fd8    00000010     empty_pem4f.oem4f (.text:xdc_runtime_System_Module_GateProxy_leave__E)
                  00020fe8    00000010     empty_pem4f.oem4f (.text:xdc_runtime_System_SupportProxy_putch__E)
                  00020ff8    00000010     ti.targets.arm.rtsarm.aem4f : System.oem4f (.text:xdc_runtime_System_vsnprintf__E)
                  00021008    0000000e     rtsv7M4_T_le_v4SPD16_eabi.lib : typeinfo.c.obj (.text:_ZN10__cxxabiv117__class_type_infoD0Ev)
                  00021016    0000000e                                   : typeinfo.c.obj (.text:_ZN10__cxxabiv120__si_class_type_infoD0Ev)
                  00021024    0000000e                                   : typeinfo.c.obj (.text:_ZN10__cxxabiv121__vmi_class_type_infoD0Ev)
                  00021032    0000000e     Can.obj (.text:_ZN3Can5abortEt)
                  00021040    0000000e     Can.obj (.text:_ZN3Can5closeEt)
                  0002104e    0000000e     Can.obj (.text:_ZN3Can5flushEt)
                  0002105c    0000000e     NetComm.obj (.text:_ZN7NetCommD1Ev)
                  0002106a    0000000e     Handler.obj (.text:_ZNKSt16initializer_listIhE4sizeEv)
                  00021078    0000000e     Handler.obj (.text:_ZNKSt16initializer_listIhE5beginEv)
                  00021086    0000000e     Can.obj (.text:_ZNKSt3__210unique_ptrINS_11__tree_nodeINS_12__value_typeIi12CanMessage_tEEPvEENS_22__tree_node_destructorINS_9allocatorIS6_EEEEE3getEv)
                  00021094    0000000e     Can.obj (.text:_ZNKSt3__210unique_ptrINS_11__tree_nodeINS_12__value_typeIi12CanMessage_tEEPvEENS_22__tree_node_destructorINS_9allocatorIS6_EEEEEptEv)
                  000210a2    0000000e     Can.obj (.text:_ZNKSt3__210unique_ptrIP12CanMessage_tNS_22__allocator_destructorINS_9allocatorIS1_EEEEE3getEv)
                  000210b0    0000000e     NetReceive.obj (.text:_ZNKSt3__210unique_ptrIP19messageIncomingInfoNS_22__allocator_destructorINS_9allocatorIS1_EEEEE3getEv)
                  000210be    0000000e     ArgumentArray.obj (.text:_ZNKSt3__211__wrap_iterIPKNS_5tupleIJNS_12basic_stringIcNS_11char_traitsIcEENS_9allocatorIcEEEE8ArgumentEEEE4baseEv)
                  000210cc    0000000e     ArgumentArray.obj (.text:_ZNKSt3__211__wrap_iterIPNS_5tupleIJNS_12basic_stringIcNS_11char_traitsIcEENS_9allocatorIcEEEE8ArgumentEEEE4baseEv)
                  000210da    0000000e     Codec.obj (.text:_ZNKSt3__211__wrap_iterIPcE4baseEv)
                  000210e8    0000000e     Codec.obj (.text:_ZNKSt3__211__wrap_iterIPcEdeEv)
                  000210f6    0000000e     Handler.obj (.text:_ZNKSt3__211__wrap_iterIPhE4baseEv)
                  00021104    0000000e     Handler.obj (.text:_ZNKSt3__211__wrap_iterIPhEdeEv)
                  00021112    0000000e     Codec.obj (.text:_ZNKSt3__211__wrap_iterIPtE4baseEv)
                  00021120    0000000e     Codec.obj (.text:_ZNKSt3__211__wrap_iterIPtEdeEv)
                  0002112e    0000000e     Can.obj (.text:_ZNKSt3__212__deque_baseI12CanMessage_tNS_9allocatorIS1_EEE4sizeEv)
                  0002113c    0000000e     NetReceive.obj (.text:_ZNKSt3__212__deque_baseI19messageIncomingInfoNS_9allocatorIS1_EEE4sizeEv)
                  0002114a    0000000e     ArgumentArray.obj (.text:_ZNKSt3__213__vector_baseINS_5tupleIJNS_12basic_stringIcNS_11char_traitsIcEENS_9allocatorIcEEEE8ArgumentEEENS5_IS9_EEE7__allocEv)
                  00021158    0000000e     ArgumentArray.obj (.text:_ZNKSt3__213__vector_baseINS_5tupleIJNS_12basic_stringIcNS_11char_traitsIcEENS_9allocatorIcEEEE8ArgumentEEENS5_IS9_EEE9__end_capEv)
                  00021166    0000000e     Handler.obj (.text:_ZNKSt3__213__vector_baseIhNS_9allocatorIhEEE7__allocEv)
                  00021174    0000000e     Handler.obj (.text:_ZNKSt3__213__vector_baseIhNS_9allocatorIhEEE9__end_capEv)
                  00021182    0000000e     ArgumentArray.obj (.text:_ZNKSt3__213__vector_baseItNS_9allocatorItEEE7__allocEv)
                  00021190    0000000e     ArgumentArray.obj (.text:_ZNKSt3__213__vector_baseItNS_9allocatorItEEE9__end_capEv)
                  0002119e    0000000e     ArgumentArray.obj (.text:_ZNKSt3__213move_iteratorIPNS_5tupleIJNS_12basic_stringIcNS_11char_traitsIcEENS_9allocatorIcEEEE8ArgumentEEEE4baseEv)
                  000211ac    0000000e     ArgumentArray.obj (.text:_ZNKSt3__213move_iteratorIPNS_5tupleIJNS_12basic_stringIcNS_11char_traitsIcEENS_9allocatorIcEEEE8ArgumentEEEEdeEv)
                  000211ba    0000000e     Can.obj (.text:_ZNKSt3__213move_iteratorIPP12CanMessage_tE4baseEv)
                  000211c8    0000000e     Can.obj (.text:_ZNKSt3__213move_iteratorIPP12CanMessage_tEdeEv)
                  000211d6    0000000e     NetReceive.obj (.text:_ZNKSt3__213move_iteratorIPP19messageIncomingInfoE4baseEv)
                  000211e4    0000000e     NetReceive.obj (.text:_ZNKSt3__213move_iteratorIPP19messageIncomingInfoEdeEv)
                  000211f2    0000000e     ArgumentArray.obj (.text:_ZNKSt3__214__split_bufferINS_5tupleIJNS_12basic_stringIcNS_11char_traitsIcEENS_9allocatorIcEEEE8ArgumentEEERNS5_IS9_EEE9__end_capEv)
                  00021200    0000000e     Can.obj (.text:_ZNKSt3__214__split_bufferIP12CanMessage_tNS_9allocatorIS2_EEE9__end_capEv)
                  0002120e    0000000e     Can.obj (.text:_ZNKSt3__214__split_bufferIP12CanMessage_tRNS_9allocatorIS2_EEE9__end_capEv)
                  0002121c    0000000e     NetReceive.obj (.text:_ZNKSt3__214__split_bufferIP19messageIncomingInfoNS_9allocatorIS2_EEE9__end_capEv)
                  0002122a    0000000e     NetReceive.obj (.text:_ZNKSt3__214__split_bufferIP19messageIncomingInfoRNS_9allocatorIS2_EEE9__end_capEv)
                  00021238    0000000e     ArgumentArray.obj (.text:_ZNKSt3__214__split_bufferItRNS_9allocatorItEEE9__end_capEv)
                  00021246    0000000e     Can.obj (.text:_ZNKSt3__215__tree_iteratorINS_12__value_typeIi12CanMessage_tEEPNS_11__tree_nodeIS3_PvEEiE8__get_npEv)
                  00021254    0000000e     Can.obj (.text:_ZNKSt3__215__tree_iteratorINS_12__value_typeIi12CanMessage_tEEPNS_11__tree_nodeIS3_PvEEiEdeEv)
                  00021262    0000000e     Can.obj (.text:_ZNKSt3__216__deque_iteratorI12CanMessage_tPS1_RS1_PS2_iLi0EEdeEv)
                  00021270    0000000e     NetReceive.obj (.text:_ZNKSt3__216__deque_iteratorI19messageIncomingInfoPS1_RS1_PS2_iLi0EEdeEv)
                  0002127e    0000000e     Can.obj (.text:_ZNKSt3__216__tree_node_baseIPvE15__parent_unsafeEv)
                  0002128c    0000000e     Can.obj (.text:_ZNKSt3__221__tree_const_iteratorINS_12__value_typeIi12CanMessage_tEEPNS_11__tree_nodeIS3_PvEEiE8__get_npEv)
                  0002129a    0000000e     Can.obj (.text:_ZNKSt3__221__tree_const_iteratorINS_12__value_typeIi12CanMessage_tEEPNS_11__tree_nodeIS3_PvEEiEdeEv)
                  000212a8    0000000e     Can.obj (.text:_ZNKSt3__25dequeI12CanMessage_tNS_9allocatorIS1_EEE13__front_spareEv)
                  000212b6    0000000e     NetReceive.obj (.text:_ZNKSt3__25dequeI19messageIncomingInfoNS_9allocatorIS1_EEE13__front_spareEv)
                  000212c4    0000000e     NetReceive.obj (.text:_ZNKSt3__25dequeI19messageIncomingInfoNS_9allocatorIS1_EEE4sizeEv)
                  000212d2    0000000e     Can.obj (.text:_ZNKSt3__26__treeINS_12__value_typeIi12CanMessage_tEENS_19__map_value_compareIiS3_NS_4lessIiEELb1EEENS_9allocatorIS3_EEE6__rootEv)
                  000212e0    0000000e     ArgumentArray.obj (.text:_ZNKSt3__26vectorINS_5tupleIJNS_12basic_stringIcNS_11char_traitsIcEENS_9allocatorIcEEEE8ArgumentEEENS5_IS9_EEE4dataEv)
                  000212ee    0000000e     Handler.obj (.text:_ZNKSt3__26vectorIhNS_9allocatorIhEEE4dataEv)
                  000212fc    0000000e     ArgumentArray.obj (.text:_ZNKSt3__26vectorItNS_9allocatorItEEE4dataEv)
                  0002130a    0000000e     rtsv7M4_T_le_v4SPD16_eabi.lib : locale.cpp.obj (.text:_ZNKSt3__27codecvtIcciE5do_inERiPKcS4_RS4_PcS6_RS6_)
                  00021318    0000000e                                   : locale.cpp.obj (.text:_ZNKSt3__27codecvtIcciE6do_outERiPKcS4_RS4_PcS6_RS6_)
                  00021326    0000000e     Can.obj (.text:_ZNKSt3__29allocatorI12CanMessage_tE8max_sizeEv)
                  00021334    0000000e     NetReceive.obj (.text:_ZNKSt3__29allocatorI19messageIncomingInfoE8max_sizeEv)
                  00021342    0000000e     ArgumentArray.obj (.text:_ZNKSt3__29allocatorINS_5tupleIJNS_12basic_stringIcNS_11char_traitsIcEENS0_IcEEEE8ArgumentEEEE8max_sizeEv)
                  00021350    0000000e     Can.obj (.text:_ZNKSt3__29allocatorIP12CanMessage_tE8max_sizeEv)
                  0002135e    0000000e     NetReceive.obj (.text:_ZNKSt3__29allocatorIP19messageIncomingInfoE8max_sizeEv)
                  0002136c    0000000e     main.obj (.text:_ZNKSt3__29allocatorIcE8max_sizeEv)
                  0002137a    0000000e     Handler.obj (.text:_ZNKSt3__29allocatorIhE8max_sizeEv)
                  00021388    0000000e     ArgumentArray.obj (.text:_ZNKSt3__29allocatorItE8max_sizeEv)
                  00021396    0000000e     rtsv7M4_T_le_v4SPD16_eabi.lib : locale.cpp.obj (.text:_ZNSt3__210moneypunctIcLb0EED0Ev)
                  000213a4    0000000e                                   : locale.cpp.obj (.text:_ZNSt3__210moneypunctIcLb1EED0Ev)
                  000213b2    0000000e                                   : locale.cpp.obj (.text:_ZNSt3__210moneypunctIwLb0EED0Ev)
                  000213c0    0000000e                                   : locale.cpp.obj (.text:_ZNSt3__210moneypunctIwLb1EED0Ev)
                  000213ce    0000000e     Codec.obj (.text:_ZNSt3__211char_traitsIcE12to_char_typeEi)
                  000213dc    0000000e     Can.obj (.text:_ZNSt3__212__deque_baseI12CanMessage_tNS_9allocatorIS1_EEE4sizeEv)
                  000213ea    0000000e     Can.obj (.text:_ZNSt3__212__deque_baseI12CanMessage_tNS_9allocatorIS1_EEE7__allocEv)
                  000213f8    0000000e     NetReceive.obj (.text:_ZNSt3__212__deque_baseI19messageIncomingInfoNS_9allocatorIS1_EEE4sizeEv)
                  00021406    0000000e     NetReceive.obj (.text:_ZNSt3__212__deque_baseI19messageIncomingInfoNS_9allocatorIS1_EEE7__allocEv)
                  00021414    0000000e     ArgumentArray.obj (.text:_ZNSt3__212__tuple_leafILj0ENS_12basic_stringIcNS_11char_traitsIcEENS_9allocatorIcEEEELb0EED1Ev)
                  00021422    0000000e     Can.obj (.text:_ZNSt3__212__tuple_leafILj0EOiLb0EE3getEv)
                  00021430    0000000e     ArgumentArray.obj (.text:_ZNSt3__212__tuple_leafILj1E8ArgumentLb0EED1Ev)
                  0002143e    0000000e     rtsv7M4_T_le_v4SPD16_eabi.lib : string.cpp.obj (.text:_ZNSt3__212basic_stringIcNS_11char_traitsIcEENS_9allocatorIcEEE15__set_long_sizeEj)
                  0002144c    0000000e                                   : string.cpp.obj (.text:_ZNSt3__212basic_stringIcNS_11char_traitsIcEENS_9allocatorIcEEE16__set_short_sizeEj)
                  0002145a    0000000e                                   : string.cpp.obj (.text:_ZNSt3__212basic_stringIcNS_11char_traitsIcEENS_9allocatorIcEEE18__set_long_pointerEPc)
                  00021468    0000000e     ArgumentArray.obj (.text:_ZNSt3__213__vector_baseINS_5tupleIJNS_12basic_stringIcNS_11char_traitsIcEENS_9allocatorIcEEEE8ArgumentEEENS5_IS9_EEE7__allocEv)
                  00021476    0000000e     ArgumentArray.obj (.text:_ZNSt3__213__vector_baseINS_5tupleIJNS_12basic_stringIcNS_11char_traitsIcEENS_9allocatorIcEEEE8ArgumentEEENS5_IS9_EEE9__end_capEv)
                  00021484    0000000e     Handler.obj (.text:_ZNSt3__213__vector_baseIhNS_9allocatorIhEEE7__allocEv)
                  00021492    0000000e     Handler.obj (.text:_ZNSt3__213__vector_baseIhNS_9allocatorIhEEE9__end_capEv)
                  000214a0    0000000e     ArgumentArray.obj (.text:_ZNSt3__213__vector_baseItNS_9allocatorItEEE7__allocEv)
                  000214ae    0000000e     ArgumentArray.obj (.text:_ZNSt3__213__vector_baseItNS_9allocatorItEEE9__end_capEv)
                  000214bc    0000000e     rtsv7M4_T_le_v4SPD16_eabi.lib : ios.cpp.obj (.text:_ZNSt3__213basic_istreamIcNS_11char_traitsIcEEED0Ev)
                  000214ca    0000000e                                   : ios.cpp.obj (.text:_ZNSt3__213basic_ostreamIcNS_11char_traitsIcEEED0Ev)
                  000214d8    0000000e     ArgumentArray.obj (.text:_ZNSt3__214__split_bufferINS_5tupleIJNS_12basic_stringIcNS_11char_traitsIcEENS_9allocatorIcEEEE8ArgumentEEERNS5_IS9_EEE7__allocEv)
                  000214e6    0000000e     ArgumentArray.obj (.text:_ZNSt3__214__split_bufferINS_5tupleIJNS_12basic_stringIcNS_11char_traitsIcEENS_9allocatorIcEEEE8ArgumentEEERNS5_IS9_EEE9__end_capEv)
                  000214f4    0000000e     Can.obj (.text:_ZNSt3__214__split_bufferIP12CanMessage_tNS_9allocatorIS2_EEE3endEv)
                  00021502    0000000e     Can.obj (.text:_ZNSt3__214__split_bufferIP12CanMessage_tNS_9allocatorIS2_EEE5beginEv)
                  00021510    0000000e     Can.obj (.text:_ZNSt3__214__split_bufferIP12CanMessage_tNS_9allocatorIS2_EEE5frontEv)
                  0002151e    0000000e     Can.obj (.text:_ZNSt3__214__split_bufferIP12CanMessage_tNS_9allocatorIS2_EEE7__allocEv)
                  0002152c    0000000e     Can.obj (.text:_ZNSt3__214__split_bufferIP12CanMessage_tNS_9allocatorIS2_EEE9__end_capEv)
                  0002153a    0000000e     Can.obj (.text:_ZNSt3__214__split_bufferIP12CanMessage_tRNS_9allocatorIS2_EEE7__allocEv)
                  00021548    0000000e     Can.obj (.text:_ZNSt3__214__split_bufferIP12CanMessage_tRNS_9allocatorIS2_EEE9__end_capEv)
                  00021556    0000000e     NetReceive.obj (.text:_ZNSt3__214__split_bufferIP19messageIncomingInfoNS_9allocatorIS2_EEE3endEv)
                  00021564    0000000e     NetReceive.obj (.text:_ZNSt3__214__split_bufferIP19messageIncomingInfoNS_9allocatorIS2_EEE5beginEv)
                  00021572    0000000e     NetReceive.obj (.text:_ZNSt3__214__split_bufferIP19messageIncomingInfoNS_9allocatorIS2_EEE5frontEv)
                  00021580    0000000e     NetReceive.obj (.text:_ZNSt3__214__split_bufferIP19messageIncomingInfoNS_9allocatorIS2_EEE7__allocEv)
                  0002158e    0000000e     NetReceive.obj (.text:_ZNSt3__214__split_bufferIP19messageIncomingInfoNS_9allocatorIS2_EEE9__end_capEv)
                  0002159c    0000000e     NetReceive.obj (.text:_ZNSt3__214__split_bufferIP19messageIncomingInfoRNS_9allocatorIS2_EEE7__allocEv)
                  000215aa    0000000e     NetReceive.obj (.text:_ZNSt3__214__split_bufferIP19messageIncomingInfoRNS_9allocatorIS2_EEE9__end_capEv)
                  000215b8    0000000e     ArgumentArray.obj (.text:_ZNSt3__214__split_bufferItRNS_9allocatorItEEE7__allocEv)
                  000215c6    0000000e     ArgumentArray.obj (.text:_ZNSt3__214__split_bufferItRNS_9allocatorItEEE9__end_capEv)
                  000215d4    0000000e     rtsv7M4_T_le_v4SPD16_eabi.lib : ios.cpp.obj (.text:_ZNSt3__214basic_iostreamIcNS_11char_traitsIcEEED0Ev)
                  000215e2    0000000e                                   : ios.cpp.obj (.text:_ZNSt3__215basic_streambufIcNS_11char_traitsIcEEED0Ev)
                  000215f0    0000000e                                   : ios.cpp.obj (.text:_ZNSt3__215basic_streambufIcNS_11char_traitsIcEEED1Ev)
                  000215fe    0000000e     Can.obj (.text:_ZNSt3__217__compressed_pairIP12CanMessage_tNS_22__allocator_destructorINS_9allocatorIS1_EEEEE6secondEv)
                  0002160c    0000000e     NetReceive.obj (.text:_ZNSt3__217__compressed_pairIP19messageIncomingInfoNS_22__allocator_destructorINS_9allocatorIS1_EEEEE6secondEv)
                  0002161a    0000000e     Can.obj (.text:_ZNSt3__217__compressed_pairIPNS_11__tree_nodeINS_12__value_typeIi12CanMessage_tEEPvEENS_22__tree_node_destructorINS_9allocatorIS6_EEEEE6secondEv)
                  00021628    0000000e     ArgumentArray.obj (.text:_ZNSt3__217__compressed_pairIPNS_5tupleIJNS_12basic_stringIcNS_11char_traitsIcEENS_9allocatorIcEEEE8ArgumentEEERNS5_IS9_EEE6secondEv)
                  00021636    0000000e     Can.obj (.text:_ZNSt3__217__compressed_pairIPP12CanMessage_tRNS_9allocatorIS2_EEE6secondEv)
                  00021644    0000000e     NetReceive.obj (.text:_ZNSt3__217__compressed_pairIPP19messageIncomingInfoRNS_9allocatorIS2_EEE6secondEv)
                  00021652    0000000e     ArgumentArray.obj (.text:_ZNSt3__217__compressed_pairIPtRNS_9allocatorItEEE6secondEv)
                  00021660    0000000e     Can.obj (.text:_ZNSt3__222__compressed_pair_elemINS_15__tree_end_nodeIPNS_16__tree_node_baseIPvEEEELi0ELb0EEC1Ev)
                  0002166e    0000000e     Can.obj (.text:_ZNSt3__222__compressed_pair_elemINS_9allocatorI12CanMessage_tEELi1ELb1EEC1Ev)
                  0002167c    0000000e     NetReceive.obj (.text:_ZNSt3__222__compressed_pair_elemINS_9allocatorI19messageIncomingInfoEELi1ELb1EEC1Ev)
                  0002168a    0000000e     Can.obj (.text:_ZNSt3__222__compressed_pair_elemINS_9allocatorINS_11__tree_nodeINS_12__value_typeIi12CanMessage_tEEPvEEEELi1ELb1EEC1Ev)
                  00021698    0000000e     ArgumentArray.obj (.text:_ZNSt3__222__compressed_pair_elemINS_9allocatorINS_5tupleIJNS_12basic_stringIcNS_11char_traitsIcEENS1_IcEEEE8ArgumentEEEEELi1ELb1EEC1Ev)
                  000216a6    0000000e     Can.obj (.text:_ZNSt3__222__compressed_pair_elemINS_9allocatorIP12CanMessage_tEELi1ELb1EEC1Ev)
                  000216b4    0000000e     NetReceive.obj (.text:_ZNSt3__222__compressed_pair_elemINS_9allocatorIP19messageIncomingInfoEELi1ELb1EEC1Ev)
                  000216c2    0000000e     Handler.obj (.text:_ZNSt3__222__compressed_pair_elemINS_9allocatorIhEELi1ELb1EEC1Ev)
                  000216d0    0000000e     Codec.obj (.text:_ZNSt3__222__compressed_pair_elemINS_9allocatorItEELi1ELb1EEC1Ev)
                  000216de    0000000e     ArgumentArray.obj (.text:_ZNSt3__222__compressed_pair_elemIRNS_9allocatorINS_5tupleIJNS_12basic_stringIcNS_11char_traitsIcEENS1_IcEEEE8ArgumentEEEEELi1ELb0EE5__getEv)
                  000216ec    0000000e     Can.obj (.text:_ZNSt3__222__compressed_pair_elemIRNS_9allocatorIP12CanMessage_tEELi1ELb0EE5__getEv)
                  000216fa    0000000e     NetReceive.obj (.text:_ZNSt3__222__compressed_pair_elemIRNS_9allocatorIP19messageIncomingInfoEELi1ELb0EE5__getEv)
                  00021708    0000000e     ArgumentArray.obj (.text:_ZNSt3__222__compressed_pair_elemIRNS_9allocatorItEELi1ELb0EE5__getEv)
                  00021716    0000000e     ArgumentArray.obj (.text:_ZNSt3__23getILj1EJNS_12basic_stringIcNS_11char_traitsIcEENS_9allocatorIcEEEE8ArgumentEEERNS_13tuple_elementIXT_ENS_5tupleIJDpT0_EEEE4typeERSC_)
                  00021724    0000000e     Can.obj (.text:_ZNSt3__23mapIi12CanMessage_tNS_4lessIiEENS_9allocatorINS_4pairIKiS1_EEEEED1Ev)
                  00021732    0000000e     rtsv7M4_T_le_v4SPD16_eabi.lib : locale.cpp.obj (.text:_ZNSt3__25ctypeIcED0Ev)
                  00021740    0000000e                                   : locale.cpp.obj (.text:_ZNSt3__25ctypeIwED0Ev)
                  0002174e    0000000e     Can.obj (.text:_ZNSt3__25dequeI12CanMessage_tNS_9allocatorIS1_EEEC1Ev)
                  0002175c    0000000e     Can.obj (.text:_ZNSt3__25dequeI12CanMessage_tNS_9allocatorIS1_EEED1Ev)
                  0002176a    0000000e     NetReceive.obj (.text:_ZNSt3__25dequeI19messageIncomingInfoNS_9allocatorIS1_EEEC1Ev)
                  00021778    0000000e     NetReceive.obj (.text:_ZNSt3__25dequeI19messageIncomingInfoNS_9allocatorIS1_EEED1Ev)
                  00021786    0000000e     Can.obj (.text:_ZNSt3__25queueI12CanMessage_tNS_5dequeIS1_NS_9allocatorIS1_EEEEEC1Ev)
                  00021794    0000000e     Can.obj (.text:_ZNSt3__25queueI12CanMessage_tNS_5dequeIS1_NS_9allocatorIS1_EEEEED1Ev)
                  000217a2    0000000e     NetReceive.obj (.text:_ZNSt3__25queueI19messageIncomingInfoNS_5dequeIS1_NS_9allocatorIS1_EEEEEC1Ev)
                  000217b0    0000000e     NetReceive.obj (.text:_ZNSt3__25queueI19messageIncomingInfoNS_5dequeIS1_NS_9allocatorIS1_EEEEED1Ev)
                  000217be    0000000e     ArgumentArray.obj (.text:_ZNSt3__25tupleIJNS_12basic_stringIcNS_11char_traitsIcEENS_9allocatorIcEEEE8ArgumentEED1Ev)
                  000217cc    0000000e     Can.obj (.text:_ZNSt3__26__treeINS_12__value_typeIi12CanMessage_tEENS_19__map_value_compareIiS3_NS_4lessIiEELb1EEENS_9allocatorIS3_EEE10value_compEv)
                  000217da    0000000e     Can.obj (.text:_ZNSt3__26__treeINS_12__value_typeIi12CanMessage_tEENS_19__map_value_compareIiS3_NS_4lessIiEELb1EEENS_9allocatorIS3_EEE12__node_allocEv)
                  000217e8    0000000e     Can.obj (.text:_ZNSt3__26__treeINS_12__value_typeIi12CanMessage_tEENS_19__map_value_compareIiS3_NS_4lessIiEELb1EEENS_9allocatorIS3_EEE4sizeEv)
                  000217f6    0000000e     rtsv7M4_T_le_v4SPD16_eabi.lib : locale.cpp.obj (.text:_ZNSt3__26locale5__impD0Ev)
                  00021804    0000000e                                   : locale.cpp.obj (.text:_ZNSt3__26locale5facetD0Ev)
                  00021812    0000000e     ArgumentArray.obj (.text:_ZNSt3__26vectorINS_5tupleIJNS_12basic_stringIcNS_11char_traitsIcEENS_9allocatorIcEEEE8ArgumentEEENS5_IS9_EEEC1Ev)
                  00021820    0000000e     ArgumentArray.obj (.text:_ZNSt3__26vectorINS_5tupleIJNS_12basic_stringIcNS_11char_traitsIcEENS_9allocatorIcEEEE8ArgumentEEENS5_IS9_EEED1Ev)
                  0002182e    0000000e     Handler.obj (.text:_ZNSt3__26vectorIhNS_9allocatorIhEEED1Ev)
                  0002183c    0000000e     Codec.obj (.text:_ZNSt3__26vectorItNS_9allocatorItEEEC1Ev)
                  0002184a    0000000e     Codec.obj (.text:_ZNSt3__26vectorItNS_9allocatorItEEED1Ev)
                  00021858    0000000e     rtsv7M4_T_le_v4SPD16_eabi.lib : locale.cpp.obj (.text:_ZNSt3__27codecvtIDiciED0Ev)
                  00021866    0000000e                                   : locale.cpp.obj (.text:_ZNSt3__27codecvtIDsciED0Ev)
                  00021874    0000000e                                   : locale.cpp.obj (.text:_ZNSt3__27codecvtIcciED0Ev)
                  00021882    0000000e                                   : locale.cpp.obj (.text:_ZNSt3__27codecvtIwciED0Ev)
                  00021890    0000000e                                   : locale.cpp.obj (.text:_ZNSt3__27collateIcED0Ev)
                  0002189e    0000000e                                   : locale.cpp.obj (.text:_ZNSt3__27collateIwED0Ev)
                  000218ac    0000000e                                   : locale.cpp.obj (.text:_ZNSt3__27num_getIcNS_19istreambuf_iteratorIcNS_11char_traitsIcEEEEED0Ev)
                  000218ba    0000000e                                   : locale.cpp.obj (.text:_ZNSt3__27num_getIwNS_19istreambuf_iteratorIwNS_11char_traitsIwEEEEED0Ev)
                  000218c8    0000000e                                   : locale.cpp.obj (.text:_ZNSt3__27num_putIcNS_19ostreambuf_iteratorIcNS_11char_traitsIcEEEEED0Ev)
                  000218d6    0000000e                                   : locale.cpp.obj (.text:_ZNSt3__27num_putIwNS_19ostreambuf_iteratorIwNS_11char_traitsIwEEEEED0Ev)
                  000218e4    0000000e                                   : ios.cpp.obj (.text:_ZNSt3__28ios_baseD0Ev)
                  000218f2    0000000e                                   : locale.cpp.obj (.text:_ZNSt3__28messagesIcED0Ev)
                  00021900    0000000e                                   : locale.cpp.obj (.text:_ZNSt3__28messagesIwED0Ev)
                  0002190e    0000000e                                   : locale.cpp.obj (.text:_ZNSt3__28numpunctIcED0Ev)
                  0002191c    0000000e                                   : locale.cpp.obj (.text:_ZNSt3__28numpunctIwED0Ev)
                  0002192a    0000000e                                   : locale.cpp.obj (.text:_ZNSt3__28time_getIcNS_19istreambuf_iteratorIcNS_11char_traitsIcEEEEED0Ev)
                  00021938    0000000e                                   : locale.cpp.obj (.text:_ZNSt3__28time_getIwNS_19istreambuf_iteratorIwNS_11char_traitsIwEEEEED0Ev)
                  00021946    0000000e     Can.obj (.text:_ZNSt3__29allocatorI12CanMessage_tE7destroyEPS1_)
                  00021954    0000000e     ArgumentArray.obj (.text:_ZNSt3__29allocatorINS_5tupleIJNS_12basic_stringIcNS_11char_traitsIcEENS0_IcEEEE8ArgumentEEEE7destroyEPS8_)
                  00021962    0000000e     rtsv7M4_T_le_v4SPD16_eabi.lib : ios.cpp.obj (.text:_ZNSt3__29basic_iosIcNS_11char_traitsIcEEED0Ev)
                  00021970    0000000e                                   : locale.cpp.obj (.text:_ZNSt3__29money_getIcNS_19istreambuf_iteratorIcNS_11char_traitsIcEEEEED0Ev)
                  0002197e    0000000e                                   : locale.cpp.obj (.text:_ZNSt3__29money_getIwNS_19istreambuf_iteratorIwNS_11char_traitsIwEEEEED0Ev)
                  0002198c    0000000e                                   : locale.cpp.obj (.text:_ZNSt3__29money_putIcNS_19ostreambuf_iteratorIcNS_11char_traitsIcEEEEED0Ev)
                  0002199a    0000000e                                   : locale.cpp.obj (.text:_ZNSt3__29money_putIwNS_19ostreambuf_iteratorIwNS_11char_traitsIwEEEEED0Ev)
                  000219a8    0000000e     Argument.obj (.text:_ZnwjPv)
                  000219b6    0000000e     rtsv7M4_T_le_v4SPD16_eabi.lib : copy_decompress_none.c.obj (.text:decompress:none:__TI_decompress_none)
                  000219c4    00000004                                   : string.cpp.obj (.text:_ZNSt3__212basic_stringIcNS_11char_traitsIcEENS_9allocatorIcEEE19__get_short_pointerEv)
                  000219c8    0000000e     sysbios.aem4f : BIOS.obj (.text:ti_sysbios_knl_Idle_loop__E)
                  000219d6    00000002     --HOLE-- [fill = 0]
                  000219d8    0000000e                   : BIOS.obj (.text:ti_sysbios_knl_Queue_empty__E)
                  000219e6    0000000c     Can.obj (.text:_ZN3Can21getLocalConfigurationER13ArgumentArray)
                  000219f2    0000000c     Can.obj (.text:_ZN3Can21setLocalConfigurationE13ArgumentArray)
                  000219fe    0000000c     Can.obj (.text:_ZN3Can5sleepE12TimeDuration)
                  00021a0a    0000000c     Comm.obj (.text:_ZN4CommD1Ev)
                  00021a16    0000000c     Codec.obj (.text:_ZN5CodecD1Ev)
                  00021a22    0000000c     Receive.obj (.text:_ZN7ReceiveD1Ev)
                  00021a2e    0000000c     Argument.obj (.text:_ZN8ArgumentC1Ev)
                  00021a3a    0000000c     Can.obj (.text:_ZNKSt3__217__compressed_pairINS_15__tree_end_nodeIPNS_16__tree_node_baseIPvEEEENS_9allocatorINS_11__tree_nodeINS_12__value_typeIi12CanMessage_tEES3_EEEEE5firstEv)
                  00021a46    0000000c     Can.obj (.text:_ZNKSt3__217__compressed_pairIP12CanMessage_tNS_22__allocator_destructorINS_9allocatorIS1_EEEEE5firstEv)
                  00021a52    0000000c     NetReceive.obj (.text:_ZNKSt3__217__compressed_pairIP19messageIncomingInfoNS_22__allocator_destructorINS_9allocatorIS1_EEEEE5firstEv)
                  00021a5e    0000000c     Can.obj (.text:_ZNKSt3__217__compressed_pairIPNS_11__tree_nodeINS_12__value_typeIi12CanMessage_tEEPvEENS_22__tree_node_destructorINS_9allocatorIS6_EEEEE5firstEv)
                  00021a6a    0000000c     ArgumentArray.obj (.text:_ZNKSt3__217__compressed_pairIPNS_5tupleIJNS_12basic_stringIcNS_11char_traitsIcEENS_9allocatorIcEEEE8ArgumentEEENS5_IS9_EEE5firstEv)
                  00021a76    0000000c     ArgumentArray.obj (.text:_ZNKSt3__217__compressed_pairIPNS_5tupleIJNS_12basic_stringIcNS_11char_traitsIcEENS_9allocatorIcEEEE8ArgumentEEENS5_IS9_EEE6secondEv)
                  00021a82    0000000c     ArgumentArray.obj (.text:_ZNKSt3__217__compressed_pairIPNS_5tupleIJNS_12basic_stringIcNS_11char_traitsIcEENS_9allocatorIcEEEE8ArgumentEEERNS5_IS9_EEE5firstEv)
                  00021a8e    0000000c     Can.obj (.text:_ZNKSt3__217__compressed_pairIPP12CanMessage_tNS_9allocatorIS2_EEE5firstEv)
                  00021a9a    0000000c     Can.obj (.text:_ZNKSt3__217__compressed_pairIPP12CanMessage_tRNS_9allocatorIS2_EEE5firstEv)
                  00021aa6    0000000c     NetReceive.obj (.text:_ZNKSt3__217__compressed_pairIPP19messageIncomingInfoNS_9allocatorIS2_EEE5firstEv)
                  00021ab2    0000000c     NetReceive.obj (.text:_ZNKSt3__217__compressed_pairIPP19messageIncomingInfoRNS_9allocatorIS2_EEE5firstEv)
                  00021abe    0000000c     Handler.obj (.text:_ZNKSt3__217__compressed_pairIPhNS_9allocatorIhEEE5firstEv)
                  00021aca    0000000c     Handler.obj (.text:_ZNKSt3__217__compressed_pairIPhNS_9allocatorIhEEE6secondEv)
                  00021ad6    0000000c     ArgumentArray.obj (.text:_ZNKSt3__217__compressed_pairIPtNS_9allocatorItEEE5firstEv)
                  00021ae2    0000000c     ArgumentArray.obj (.text:_ZNKSt3__217__compressed_pairIPtNS_9allocatorItEEE6secondEv)
                  00021aee    0000000c     ArgumentArray.obj (.text:_ZNKSt3__217__compressed_pairIPtRNS_9allocatorItEEE5firstEv)
                  00021afa    0000000c     Can.obj (.text:_ZNKSt3__217__compressed_pairIjNS_9allocatorI12CanMessage_tEEE5firstEv)
                  00021b06    0000000c     NetReceive.obj (.text:_ZNKSt3__217__compressed_pairIjNS_9allocatorI19messageIncomingInfoEEE5firstEv)
                  00021b12    00000002     --HOLE-- [fill = 0]
                  00021b14    0000000c     rtsv7M4_T_le_v4SPD16_eabi.lib : vector.cpp.obj (.text:_ZNKSt3__220__vector_base_commonILb1EE20__throw_length_errorEv)
                  00021b20    0000000c                                   : string.cpp.obj (.text:_ZNKSt3__221__basic_string_commonILb1EE20__throw_length_errorEv)
                  00021b2c    0000000c                                   : string.cpp.obj (.text:_ZNKSt3__221__basic_string_commonILb1EE20__throw_out_of_rangeEv)
                  00021b38    0000000c     main.obj (.text:_ZNKSt3__222__compressed_pair_elemINS_12basic_stringIcNS_11char_traitsIcEENS_9allocatorIcEEE5__repELi0ELb0EE5__getEv)
                  00021b44    0000000c     Can.obj (.text:_ZNKSt3__222__compressed_pair_elemINS_15__tree_end_nodeIPNS_16__tree_node_baseIPvEEEELi0ELb0EE5__getEv)
                  00021b50    0000000c     ArgumentArray.obj (.text:_ZNKSt3__222__compressed_pair_elemINS_9allocatorINS_5tupleIJNS_12basic_stringIcNS_11char_traitsIcEENS1_IcEEEE8ArgumentEEEEELi1ELb1EE5__getEv)
                  00021b5c    0000000c     main.obj (.text:_ZNKSt3__222__compressed_pair_elemINS_9allocatorIcEELi1ELb1EE5__getEv)
                  00021b68    0000000c     Handler.obj (.text:_ZNKSt3__222__compressed_pair_elemINS_9allocatorIhEELi1ELb1EE5__getEv)
                  00021b74    0000000c     ArgumentArray.obj (.text:_ZNKSt3__222__compressed_pair_elemINS_9allocatorItEELi1ELb1EE5__getEv)
                  00021b80    0000000c     Can.obj (.text:_ZNKSt3__222__compressed_pair_elemIP12CanMessage_tLi0ELb0EE5__getEv)
                  00021b8c    0000000c     NetReceive.obj (.text:_ZNKSt3__222__compressed_pair_elemIP19messageIncomingInfoLi0ELb0EE5__getEv)
                  00021b98    0000000c     Can.obj (.text:_ZNKSt3__222__compressed_pair_elemIPNS_11__tree_nodeINS_12__value_typeIi12CanMessage_tEEPvEELi0ELb0EE5__getEv)
                  00021ba4    0000000c     ArgumentArray.obj (.text:_ZNKSt3__222__compressed_pair_elemIPNS_5tupleIJNS_12basic_stringIcNS_11char_traitsIcEENS_9allocatorIcEEEE8ArgumentEEELi0ELb0EE5__getEv)
                  00021bb0    0000000c     Can.obj (.text:_ZNKSt3__222__compressed_pair_elemIPP12CanMessage_tLi0ELb0EE5__getEv)
                  00021bbc    0000000c     NetReceive.obj (.text:_ZNKSt3__222__compressed_pair_elemIPP19messageIncomingInfoLi0ELb0EE5__getEv)
                  00021bc8    0000000c     Handler.obj (.text:_ZNKSt3__222__compressed_pair_elemIPhLi0ELb0EE5__getEv)
                  00021bd4    0000000c     ArgumentArray.obj (.text:_ZNKSt3__222__compressed_pair_elemIPtLi0ELb0EE5__getEv)
                  00021be0    0000000c     Can.obj (.text:_ZNKSt3__222__compressed_pair_elemIjLi0ELb0EE5__getEv)
                  00021bec    0000000c     rtsv7M4_T_le_v4SPD16_eabi.lib : locale.cpp.obj (.text:_ZNKSt3__25ctypeIcE9do_narrowEcc)
                  00021bf8    0000000c                                   : locale.cpp.obj (.text:_ZNKSt3__25ctypeIwE9do_narrowEwc)
                  00021c04    0000000c     NetReceive.obj (.text:_ZNKSt3__25queueI19messageIncomingInfoNS_5dequeIS1_NS_9allocatorIS1_EEEEE4sizeEv)
                  00021c10    0000000c     ArgumentArray.obj (.text:_ZNKSt3__26vectorINS_5tupleIJNS_12basic_stringIcNS_11char_traitsIcEENS_9allocatorIcEEEE8ArgumentEEENS5_IS9_EEE8capacityEv)
                  00021c1c    0000000c     Handler.obj (.text:_ZNKSt3__26vectorIhNS_9allocatorIhEEE8capacityEv)
                  00021c28    0000000c     ArgumentArray.obj (.text:_ZNKSt3__26vectorItNS_9allocatorItEEE8capacityEv)
                  00021c34    0000000c     rtsv7M4_T_le_v4SPD16_eabi.lib : locale.cpp.obj (.text:_ZNKSt3__27codecvtIwciE13do_max_lengthEv)
                  00021c40    0000000c     main.obj (.text:_ZNSt3__210__allocateEj)
                  00021c4c    0000000c     Can.obj (.text:_ZNSt3__210unique_ptrINS_11__tree_nodeINS_12__value_typeIi12CanMessage_tEEPvEENS_22__tree_node_destructorINS_9allocatorIS6_EEEEE11get_deleterEv)
                  00021c58    0000000c     main.obj (.text:_ZNSt3__211char_traitsIcE6lengthEPKc)
                  00021c64    0000000c     Can.obj (.text:_ZNSt3__212__deque_baseI12CanMessage_tNS_9allocatorIS1_EEEC2Ev)
                  00021c70    0000000c     Can.obj (.text:_ZNSt3__212__deque_baseI12CanMessage_tNS_9allocatorIS1_EEED2Ev)
                  00021c7c    0000000c     NetReceive.obj (.text:_ZNSt3__212__deque_baseI19messageIncomingInfoNS_9allocatorIS1_EEEC2Ev)
                  00021c88    0000000c     NetReceive.obj (.text:_ZNSt3__212__deque_baseI19messageIncomingInfoNS_9allocatorIS1_EEED2Ev)
                  00021c94    0000000c     ArgumentArray.obj (.text:_ZNSt3__212__tuple_leafILj0ENS_12basic_stringIcNS_11char_traitsIcEENS_9allocatorIcEEEELb0EE3getEv)
                  00021ca0    0000000c     ArgumentArray.obj (.text:_ZNSt3__212__tuple_leafILj0ENS_12basic_stringIcNS_11char_traitsIcEENS_9allocatorIcEEEELb0EED2Ev)
                  00021cac    0000000c     ArgumentArray.obj (.text:_ZNSt3__212__tuple_leafILj1E8ArgumentLb0EE3getEv)
                  00021cb8    0000000c     ArgumentArray.obj (.text:_ZNSt3__212__tuple_leafILj1E8ArgumentLb0EED2Ev)
                  00021cc4    0000000c     ArgumentArray.obj (.text:_ZNSt3__213__unwrap_iterIPNS_5tupleIJNS_12basic_stringIcNS_11char_traitsIcEENS_9allocatorIcEEEE8ArgumentEEEEET_SB_)
                  00021cd0    0000000c     Can.obj (.text:_ZNSt3__213__unwrap_iterIPP12CanMessage_tEET_S4_)
                  00021cdc    0000000c     NetReceive.obj (.text:_ZNSt3__213__unwrap_iterIPP19messageIncomingInfoEET_S4_)
                  00021ce8    0000000c     ArgumentArray.obj (.text:_ZNSt3__213__vector_baseINS_5tupleIJNS_12basic_stringIcNS_11char_traitsIcEENS_9allocatorIcEEEE8ArgumentEEENS5_IS9_EEEC2Ev)
                  00021cf4    0000000c     ArgumentArray.obj (.text:_ZNSt3__213__vector_baseINS_5tupleIJNS_12basic_stringIcNS_11char_traitsIcEENS_9allocatorIcEEEE8ArgumentEEENS5_IS9_EEED2Ev)
                  00021d00    0000000c     Handler.obj (.text:_ZNSt3__213__vector_baseIhNS_9allocatorIhEEEC2Ev)
                  00021d0c    0000000c     Handler.obj (.text:_ZNSt3__213__vector_baseIhNS_9allocatorIhEEED2Ev)
                  00021d18    0000000c     Codec.obj (.text:_ZNSt3__213__vector_baseItNS_9allocatorItEEEC2Ev)
                  00021d24    0000000c     Codec.obj (.text:_ZNSt3__213__vector_baseItNS_9allocatorItEEED2Ev)
                  00021d30    0000000c     Can.obj (.text:_ZNSt3__214pointer_traitsIPNS_12__value_typeIi12CanMessage_tEEE10pointer_toERS3_)
                  00021d3c    0000000c     Can.obj (.text:_ZNSt3__214pointer_traitsIPNS_15__tree_end_nodeIPNS_16__tree_node_baseIPvEEEEE10pointer_toERS6_)
                  00021d48    0000000c     NetReceive.obj (.text:_ZNSt3__216__to_raw_pointerI19messageIncomingInfoEEPT_S3_)
                  00021d54    0000000c     ArgumentArray.obj (.text:_ZNSt3__216__to_raw_pointerINS_5tupleIJNS_12basic_stringIcNS_11char_traitsIcEENS_9allocatorIcEEEE8ArgumentEEEEEPT_SB_)
                  00021d60    0000000c     Can.obj (.text:_ZNSt3__216__to_raw_pointerIP12CanMessage_tEEPT_S4_)
                  00021d6c    0000000c     NetReceive.obj (.text:_ZNSt3__216__to_raw_pointerIP19messageIncomingInfoEEPT_S4_)
                  00021d78    0000000c     Handler.obj (.text:_ZNSt3__216__to_raw_pointerIhEEPT_S2_)
                  00021d84    0000000c     ArgumentArray.obj (.text:_ZNSt3__216__to_raw_pointerItEEPT_S2_)
                  00021d90    0000000c     ArgumentArray.obj (.text:_ZNSt3__216move_if_noexceptINS_5tupleIJNS_12basic_stringIcNS_11char_traitsIcEENS_9allocatorIcEEEE8ArgumentEEEEENS_11conditionalIXaantsr3std3__229is_nothrow_move_constructibleIT_EE5valuesr3std3__221is_copy_constructibleISB_EE5valueERKSB_OSB_E4typeERSB_)
                  00021d9c    0000000c     Can.obj (.text:_ZNSt3__217__compressed_pairINS_15__tree_end_nodeIPNS_16__tree_node_baseIPvEEEENS_9allocatorINS_11__tree_nodeINS_12__value_typeIi12CanMessage_tEES3_EEEEE5firstEv)
                  00021da8    0000000c     Can.obj (.text:_ZNSt3__217__compressed_pairINS_15__tree_end_nodeIPNS_16__tree_node_baseIPvEEEENS_9allocatorINS_11__tree_nodeINS_12__value_typeIi12CanMessage_tEES3_EEEEE6secondEv)
                  00021db4    0000000c     Can.obj (.text:_ZNSt3__217__compressed_pairIP12CanMessage_tNS_22__allocator_destructorINS_9allocatorIS1_EEEEE5firstEv)
                  00021dc0    0000000c     NetReceive.obj (.text:_ZNSt3__217__compressed_pairIP19messageIncomingInfoNS_22__allocator_destructorINS_9allocatorIS1_EEEEE5firstEv)
                  00021dcc    0000000c     Can.obj (.text:_ZNSt3__217__compressed_pairIPNS_11__tree_nodeINS_12__value_typeIi12CanMessage_tEEPvEENS_22__tree_node_destructorINS_9allocatorIS6_EEEEE5firstEv)
                  00021dd8    0000000c     ArgumentArray.obj (.text:_ZNSt3__217__compressed_pairIPNS_5tupleIJNS_12basic_stringIcNS_11char_traitsIcEENS_9allocatorIcEEEE8ArgumentEEENS5_IS9_EEE5firstEv)
                  00021de4    0000000c     ArgumentArray.obj (.text:_ZNSt3__217__compressed_pairIPNS_5tupleIJNS_12basic_stringIcNS_11char_traitsIcEENS_9allocatorIcEEEE8ArgumentEEENS5_IS9_EEE6secondEv)
                  00021df0    0000000c     ArgumentArray.obj (.text:_ZNSt3__217__compressed_pairIPNS_5tupleIJNS_12basic_stringIcNS_11char_traitsIcEENS_9allocatorIcEEEE8ArgumentEEERNS5_IS9_EEE5firstEv)
                  00021dfc    0000000c     Can.obj (.text:_ZNSt3__217__compressed_pairIPP12CanMessage_tNS_9allocatorIS2_EEE5firstEv)
                  00021e08    0000000c     Can.obj (.text:_ZNSt3__217__compressed_pairIPP12CanMessage_tNS_9allocatorIS2_EEE6secondEv)
                  00021e14    0000000c     Can.obj (.text:_ZNSt3__217__compressed_pairIPP12CanMessage_tRNS_9allocatorIS2_EEE5firstEv)
                  00021e20    0000000c     NetReceive.obj (.text:_ZNSt3__217__compressed_pairIPP19messageIncomingInfoNS_9allocatorIS2_EEE5firstEv)
                  00021e2c    0000000c     NetReceive.obj (.text:_ZNSt3__217__compressed_pairIPP19messageIncomingInfoNS_9allocatorIS2_EEE6secondEv)
                  00021e38    0000000c     NetReceive.obj (.text:_ZNSt3__217__compressed_pairIPP19messageIncomingInfoRNS_9allocatorIS2_EEE5firstEv)
                  00021e44    0000000c     Handler.obj (.text:_ZNSt3__217__compressed_pairIPhNS_9allocatorIhEEE5firstEv)
                  00021e50    0000000c     Handler.obj (.text:_ZNSt3__217__compressed_pairIPhNS_9allocatorIhEEE6secondEv)
                  00021e5c    0000000c     ArgumentArray.obj (.text:_ZNSt3__217__compressed_pairIPtNS_9allocatorItEEE5firstEv)
                  00021e68    0000000c     ArgumentArray.obj (.text:_ZNSt3__217__compressed_pairIPtNS_9allocatorItEEE6secondEv)
                  00021e74    0000000c     ArgumentArray.obj (.text:_ZNSt3__217__compressed_pairIPtRNS_9allocatorItEEE5firstEv)
                  00021e80    0000000c     Can.obj (.text:_ZNSt3__217__compressed_pairIjNS_19__map_value_compareIiNS_12__value_typeIi12CanMessage_tEENS_4lessIiEELb1EEEE5firstEv)
                  00021e8c    0000000c     Can.obj (.text:_ZNSt3__217__compressed_pairIjNS_19__map_value_compareIiNS_12__value_typeIi12CanMessage_tEENS_4lessIiEELb1EEEE6secondEv)
                  00021e98    0000000c     Can.obj (.text:_ZNSt3__217__compressed_pairIjNS_9allocatorI12CanMessage_tEEE5firstEv)
                  00021ea4    0000000c     Can.obj (.text:_ZNSt3__217__compressed_pairIjNS_9allocatorI12CanMessage_tEEE6secondEv)
                  00021eb0    0000000c     NetReceive.obj (.text:_ZNSt3__217__compressed_pairIjNS_9allocatorI19messageIncomingInfoEEE5firstEv)
                  00021ebc    0000000c     NetReceive.obj (.text:_ZNSt3__217__compressed_pairIjNS_9allocatorI19messageIncomingInfoEEE6secondEv)
                  00021ec8    0000000c     main.obj (.text:_ZNSt3__219__libcpp_deallocateEPv)
                  00021ed4    0000000c     main.obj (.text:_ZNSt3__222__compressed_pair_elemINS_12basic_stringIcNS_11char_traitsIcEENS_9allocatorIcEEE5__repELi0ELb0EE5__getEv)
                  00021ee0    0000000c     main.obj (.text:_ZNSt3__222__compressed_pair_elemINS_12basic_stringIcNS_11char_traitsIcEENS_9allocatorIcEEE5__repELi0ELb0EEC2Ev)
                  00021eec    0000000c     Can.obj (.text:_ZNSt3__222__compressed_pair_elemINS_15__tree_end_nodeIPNS_16__tree_node_baseIPvEEEELi0ELb0EE5__getEv)
                  00021ef8    0000000c     Can.obj (.text:_ZNSt3__222__compressed_pair_elemINS_15__tree_end_nodeIPNS_16__tree_node_baseIPvEEEELi0ELb0EEC2Ev)
                  00021f04    0000000c     Can.obj (.text:_ZNSt3__222__compressed_pair_elemINS_19__map_value_compareIiNS_12__value_typeIi12CanMessage_tEENS_4lessIiEELb1EEELi1ELb1EE5__getEv)
                  00021f10    0000000c     Can.obj (.text:_ZNSt3__222__compressed_pair_elemINS_22__allocator_destructorINS_9allocatorI12CanMessage_tEEEELi1ELb0EE5__getEv)
                  00021f1c    0000000c     NetReceive.obj (.text:_ZNSt3__222__compressed_pair_elemINS_22__allocator_destructorINS_9allocatorI19messageIncomingInfoEEEELi1ELb0EE5__getEv)
                  00021f28    0000000c     Can.obj (.text:_ZNSt3__222__compressed_pair_elemINS_22__tree_node_destructorINS_9allocatorINS_11__tree_nodeINS_12__value_typeIi12CanMessage_tEEPvEEEEEELi1ELb0EE5__getEv)
                  00021f34    0000000c     Can.obj (.text:_ZNSt3__222__compressed_pair_elemINS_9allocatorI12CanMessage_tEELi1ELb1EE5__getEv)
                  00021f40    0000000c     Can.obj (.text:_ZNSt3__222__compressed_pair_elemINS_9allocatorI12CanMessage_tEELi1ELb1EEC2Ev)
                  00021f4c    0000000c     NetReceive.obj (.text:_ZNSt3__222__compressed_pair_elemINS_9allocatorI19messageIncomingInfoEELi1ELb1EE5__getEv)
                  00021f58    0000000c     NetReceive.obj (.text:_ZNSt3__222__compressed_pair_elemINS_9allocatorI19messageIncomingInfoEELi1ELb1EEC2Ev)
                  00021f64    0000000c     Can.obj (.text:_ZNSt3__222__compressed_pair_elemINS_9allocatorINS_11__tree_nodeINS_12__value_typeIi12CanMessage_tEEPvEEEELi1ELb1EE5__getEv)
                  00021f70    0000000c     Can.obj (.text:_ZNSt3__222__compressed_pair_elemINS_9allocatorINS_11__tree_nodeINS_12__value_typeIi12CanMessage_tEEPvEEEELi1ELb1EEC2Ev)
                  00021f7c    0000000c     ArgumentArray.obj (.text:_ZNSt3__222__compressed_pair_elemINS_9allocatorINS_5tupleIJNS_12basic_stringIcNS_11char_traitsIcEENS1_IcEEEE8ArgumentEEEEELi1ELb1EE5__getEv)
                  00021f88    0000000c     ArgumentArray.obj (.text:_ZNSt3__222__compressed_pair_elemINS_9allocatorINS_5tupleIJNS_12basic_stringIcNS_11char_traitsIcEENS1_IcEEEE8ArgumentEEEEELi1ELb1EEC2Ev)
                  00021f94    0000000c     Can.obj (.text:_ZNSt3__222__compressed_pair_elemINS_9allocatorIP12CanMessage_tEELi1ELb1EE5__getEv)
                  00021fa0    0000000c     Can.obj (.text:_ZNSt3__222__compressed_pair_elemINS_9allocatorIP12CanMessage_tEELi1ELb1EEC2Ev)
                  00021fac    0000000c     NetReceive.obj (.text:_ZNSt3__222__compressed_pair_elemINS_9allocatorIP19messageIncomingInfoEELi1ELb1EE5__getEv)
                  00021fb8    0000000c     NetReceive.obj (.text:_ZNSt3__222__compressed_pair_elemINS_9allocatorIP19messageIncomingInfoEELi1ELb1EEC2Ev)
                  00021fc4    0000000c     main.obj (.text:_ZNSt3__222__compressed_pair_elemINS_9allocatorIcEELi1ELb1EE5__getEv)
                  00021fd0    0000000c     Handler.obj (.text:_ZNSt3__222__compressed_pair_elemINS_9allocatorIhEELi1ELb1EE5__getEv)
                  00021fdc    0000000c     Handler.obj (.text:_ZNSt3__222__compressed_pair_elemINS_9allocatorIhEELi1ELb1EEC2Ev)
                  00021fe8    0000000c     ArgumentArray.obj (.text:_ZNSt3__222__compressed_pair_elemINS_9allocatorItEELi1ELb1EE5__getEv)
                  00021ff4    0000000c     Codec.obj (.text:_ZNSt3__222__compressed_pair_elemINS_9allocatorItEELi1ELb1EEC2Ev)
                  00022000    0000000c     Can.obj (.text:_ZNSt3__222__compressed_pair_elemIP12CanMessage_tLi0ELb0EE5__getEv)
                  0002200c    0000000c     NetReceive.obj (.text:_ZNSt3__222__compressed_pair_elemIP19messageIncomingInfoLi0ELb0EE5__getEv)
                  00022018    0000000c     Can.obj (.text:_ZNSt3__222__compressed_pair_elemIPNS_11__tree_nodeINS_12__value_typeIi12CanMessage_tEEPvEELi0ELb0EE5__getEv)
                  00022024    0000000c     ArgumentArray.obj (.text:_ZNSt3__222__compressed_pair_elemIPNS_5tupleIJNS_12basic_stringIcNS_11char_traitsIcEENS_9allocatorIcEEEE8ArgumentEEELi0ELb0EE5__getEv)
                  00022030    0000000c     Can.obj (.text:_ZNSt3__222__compressed_pair_elemIPP12CanMessage_tLi0ELb0EE5__getEv)
                  0002203c    0000000c     NetReceive.obj (.text:_ZNSt3__222__compressed_pair_elemIPP19messageIncomingInfoLi0ELb0EE5__getEv)
                  00022048    0000000c     Handler.obj (.text:_ZNSt3__222__compressed_pair_elemIPhLi0ELb0EE5__getEv)
                  00022054    0000000c     ArgumentArray.obj (.text:_ZNSt3__222__compressed_pair_elemIPtLi0ELb0EE5__getEv)
                  00022060    0000000c     Can.obj (.text:_ZNSt3__222__compressed_pair_elemIjLi0ELb0EE5__getEv)
                  0002206c    0000000c     Can.obj (.text:_ZNSt3__222__tree_key_value_typesINS_12__value_typeIi12CanMessage_tEEE9__get_ptrERS3_)
                  00022078    0000000c     Can.obj (.text:_ZNSt3__23getILj0EJOiEEERNS_13tuple_elementIXT_ENS_5tupleIJDpT0_EEEE4typeERS6_)
                  00022084    0000000c     Can.obj (.text:_ZNSt3__24moveIRNS_22__allocator_destructorINS_9allocatorI12CanMessage_tEEEEEEONS_16remove_referenceIT_E4typeEOS8_)
                  00022090    0000000c     NetReceive.obj (.text:_ZNSt3__24moveIRNS_22__allocator_destructorINS_9allocatorI19messageIncomingInfoEEEEEEONS_16remove_referenceIT_E4typeEOS8_)
                  0002209c    0000000c     Can.obj (.text:_ZNSt3__24moveIRNS_22__tree_node_destructorINS_9allocatorINS_11__tree_nodeINS_12__value_typeIi12CanMessage_tEEPvEEEEEEEEONS_16remove_referenceIT_E4typeEOSD_)
                  000220a8    0000000c     ArgumentArray.obj (.text:_ZNSt3__24moveIRNS_5tupleIJNS_12basic_stringIcNS_11char_traitsIcEENS_9allocatorIcEEEE8ArgumentEEEEEONS_16remove_referenceIT_E4typeEOSC_)
                  000220b4    0000000c     Can.obj (.text:_ZNSt3__24moveIRP12CanMessage_tEEONS_16remove_referenceIT_E4typeEOS5_)
                  000220c0    0000000c     NetReceive.obj (.text:_ZNSt3__24moveIRP19messageIncomingInfoEEONS_16remove_referenceIT_E4typeEOS5_)
                  000220cc    0000000c     ArgumentArray.obj (.text:_ZNSt3__24moveIRPNS_5tupleIJNS_12basic_stringIcNS_11char_traitsIcEENS_9allocatorIcEEEE8ArgumentEEEEEONS_16remove_referenceIT_E4typeEOSD_)
                  000220d8    0000000c     Can.obj (.text:_ZNSt3__24moveIRPP12CanMessage_tEEONS_16remove_referenceIT_E4typeEOS6_)
                  000220e4    0000000c     NetReceive.obj (.text:_ZNSt3__24moveIRPP19messageIncomingInfoEEONS_16remove_referenceIT_E4typeEOS6_)
                  000220f0    0000000c     ArgumentArray.obj (.text:_ZNSt3__24moveIRPtEEONS_16remove_referenceIT_E4typeEOS4_)
                  000220fc    0000000c     Can.obj (.text:_ZNSt3__24moveIRiEEONS_16remove_referenceIT_E4typeEOS3_)
                  00022108    0000000c     ArgumentArray.obj (.text:_ZNSt3__24moveIRtEEONS_16remove_referenceIT_E4typeEOS3_)
                  00022114    0000000c     NetReceive.obj (.text:_ZNSt3__25queueI19messageIncomingInfoNS_5dequeIS1_NS_9allocatorIS1_EEEEE3popEv)
                  00022120    0000000c     NetReceive.obj (.text:_ZNSt3__25queueI19messageIncomingInfoNS_5dequeIS1_NS_9allocatorIS1_EEEEE5frontEv)
                  0002212c    0000000c     Can.obj (.text:_ZNSt3__26__treeINS_12__value_typeIi12CanMessage_tEENS_19__map_value_compareIiS3_NS_4lessIiEELb1EEENS_9allocatorIS3_EEE12__begin_nodeEv)
                  00022138    0000000c     rtsv7M4_T_le_v4SPD16_eabi.lib : locale.cpp.obj (.text:_ZNSt3__26locale5facet16__on_zero_sharedEv)
                  00022144    0000000c                                   : locale.cpp.obj (.text:_ZNSt3__26localeC1ERKS0_)
                  00022150    0000000c     Can.obj (.text:_ZNSt3__27forwardI12CanMessage_tEEOT_RNS_16remove_referenceIS2_E4typeE)
                  0002215c    0000000c     ArgumentArray.obj (.text:_ZNSt3__27forwardI8ArgumentEEOT_RNS_16remove_referenceIS2_E4typeE)
                  00022168    0000000c     ArgumentArray.obj (.text:_ZNSt3__27forwardIDnEEOT_RNS_16remove_referenceIS1_E4typeE)
                  00022174    0000000c     ArgumentArray.obj (.text:_ZNSt3__27forwardINS_12basic_stringIcNS_11char_traitsIcEENS_9allocatorIcEEEEEEOT_RNS_16remove_referenceIS7_E4typeE)
                  00022180    0000000c     Can.obj (.text:_ZNSt3__27forwardINS_15__tree_iteratorINS_12__value_typeIi12CanMessage_tEEPNS_11__tree_nodeIS4_PvEEiEEEEOT_RNS_16remove_referenceISA_E4typeE)
                  0002218c    0000000c     Can.obj (.text:_ZNSt3__27forwardINS_22__allocator_destructorINS_9allocatorI12CanMessage_tEEEEEEOT_RNS_16remove_referenceIS6_E4typeE)
                  00022198    0000000c     NetReceive.obj (.text:_ZNSt3__27forwardINS_22__allocator_destructorINS_9allocatorI19messageIncomingInfoEEEEEEOT_RNS_16remove_referenceIS6_E4typeE)
                  000221a4    0000000c     Can.obj (.text:_ZNSt3__27forwardINS_22__tree_node_destructorINS_9allocatorINS_11__tree_nodeINS_12__value_typeIi12CanMessage_tEEPvEEEEEEEEOT_RNS_16remove_referenceISB_E4typeE)
                  000221b0    0000000c     Can.obj (.text:_ZNSt3__27forwardINS_4pairIi12CanMessage_tEEEEOT_RNS_16remove_referenceIS4_E4typeE)
                  000221bc    0000000c     Can.obj (.text:_ZNSt3__27forwardINS_5tupleIJEEEEEOT_RNS_16remove_referenceIS3_E4typeE)
                  000221c8    0000000c     ArgumentArray.obj (.text:_ZNSt3__27forwardINS_5tupleIJNS_12basic_stringIcNS_11char_traitsIcEENS_9allocatorIcEEEE8ArgumentEEEEEOT_RNS_16remove_referenceISA_E4typeE)
                  000221d4    0000000c     Can.obj (.text:_ZNSt3__27forwardINS_5tupleIJOiEEEEEOT_RNS_16remove_referenceIS4_E4typeE)
                  000221e0    0000000c     Can.obj (.text:_ZNSt3__27forwardIOiEEOT_RNS_16remove_referenceIS2_E4typeE)
                  000221ec    0000000c     Can.obj (.text:_ZNSt3__27forwardIP12CanMessage_tEEOT_RNS_16remove_referenceIS3_E4typeE)
                  000221f8    0000000c     NetReceive.obj (.text:_ZNSt3__27forwardIP19messageIncomingInfoEEOT_RNS_16remove_referenceIS3_E4typeE)
                  00022204    0000000c     Can.obj (.text:_ZNSt3__27forwardIPNS_11__tree_nodeINS_12__value_typeIi12CanMessage_tEEPvEEEEOT_RNS_16remove_referenceIS8_E4typeE)
                  00022210    0000000c     Can.obj (.text:_ZNSt3__27forwardIR12CanMessage_tEEOT_RNS_16remove_referenceIS3_E4typeE)
                  0002221c    0000000c     ArgumentArray.obj (.text:_ZNSt3__27forwardIR8ArgumentEEOT_RNS_16remove_referenceIS3_E4typeE)
                  00022228    0000000c     ArgumentArray.obj (.text:_ZNSt3__27forwardIRA1_KcEEOT_RNS_16remove_referenceIS4_E4typeE)
                  00022234    0000000c     Can.obj (.text:_ZNSt3__27forwardIRK12CanMessage_tEEOT_RNS_16remove_referenceIS4_E4typeE)
                  00022240    0000000c     NetReceive.obj (.text:_ZNSt3__27forwardIRK19messageIncomingInfoEEOT_RNS_16remove_referenceIS4_E4typeE)
                  0002224c    0000000c     Can.obj (.text:_ZNSt3__27forwardIRKNS_19__map_value_compareIiNS_12__value_typeIi12CanMessage_tEENS_4lessIiEELb1EEEEEOT_RNS_16remove_referenceISA_E4typeE)
                  00022258    0000000c     Can.obj (.text:_ZNSt3__27forwardIRKNS_21piecewise_construct_tEEEOT_RNS_16remove_referenceIS4_E4typeE)
                  00022264    0000000c     Handler.obj (.text:_ZNSt3__27forwardIRKNS_9allocatorIcEEEEOT_RNS_16remove_referenceIS5_E4typeE)
                  00022270    0000000c     Can.obj (.text:_ZNSt3__27forwardIRKP12CanMessage_tEEOT_RNS_16remove_referenceIS5_E4typeE)
                  0002227c    0000000c     NetReceive.obj (.text:_ZNSt3__27forwardIRKP19messageIncomingInfoEEOT_RNS_16remove_referenceIS5_E4typeE)
                  00022288    0000000c     Handler.obj (.text:_ZNSt3__27forwardIRKhEEOT_RNS_16remove_referenceIS3_E4typeE)
                  00022294    0000000c     ArgumentArray.obj (.text:_ZNSt3__27forwardIRNS_9allocatorINS_5tupleIJNS_12basic_stringIcNS_11char_traitsIcEENS1_IcEEEE8ArgumentEEEEEEEOT_RNS_16remove_referenceISC_E4typeE)
                  000222a0    0000000c     Can.obj (.text:_ZNSt3__27forwardIRNS_9allocatorIP12CanMessage_tEEEEOT_RNS_16remove_referenceIS6_E4typeE)
                  000222ac    0000000c     NetReceive.obj (.text:_ZNSt3__27forwardIRNS_9allocatorIP19messageIncomingInfoEEEEOT_RNS_16remove_referenceIS6_E4typeE)
                  000222b8    0000000c     ArgumentArray.obj (.text:_ZNSt3__27forwardIRNS_9allocatorItEEEEOT_RNS_16remove_referenceIS4_E4typeE)
                  000222c4    0000000c     Can.obj (.text:_ZNSt3__27forwardIRP12CanMessage_tEEOT_RNS_16remove_referenceIS4_E4typeE)
                  000222d0    0000000c     NetReceive.obj (.text:_ZNSt3__27forwardIRP19messageIncomingInfoEEOT_RNS_16remove_referenceIS4_E4typeE)
                  000222dc    0000000c     Can.obj (.text:_ZNSt3__27forwardIRPNS_11__tree_nodeINS_12__value_typeIi12CanMessage_tEEPvEEEEOT_RNS_16remove_referenceIS9_E4typeE)
                  000222e8    0000000c     Can.obj (.text:_ZNSt3__27forwardIRbEEOT_RNS_16remove_referenceIS2_E4typeE)
                  000222f4    0000000c     Can.obj (.text:_ZNSt3__27forwardIRtEEOT_RNS_16remove_referenceIS2_E4typeE)
                  00022300    0000000c     Can.obj (.text:_ZNSt3__27forwardIbEEOT_RNS_16remove_referenceIS1_E4typeE)
                  0002230c    0000000c     Can.obj (.text:_ZNSt3__27forwardIiEEOT_RNS_16remove_referenceIS1_E4typeE)
                  00022318    0000000c     ArgumentArray.obj (.text:_ZNSt3__27forwardItEEOT_RNS_16remove_referenceIS1_E4typeE)
                  00022324    0000000c     rtsv7M4_T_le_v4SPD16_eabi.lib : ios.cpp.obj (.text:_ZNSt3__28ios_base5clearEj)
                  00022330    0000000c     ArgumentArray.obj (.text:_ZNSt3__29__swallowIJRNS_12__tuple_leafILj0ENS_12basic_stringIcNS_11char_traitsIcEENS_9allocatorIcEEEELb0EEERNS1_ILj1E8ArgumentLb0EEEEEEvDpOT_)
                  0002233c    0000000c     Can.obj (.text:_ZNSt3__29addressofI12CanMessage_tEEPT_RS2_)
                  00022348    0000000c     NetReceive.obj (.text:_ZNSt3__29addressofI19messageIncomingInfoEEPT_RS2_)
                  00022354    0000000c     Can.obj (.text:_ZNSt3__29addressofINS_12__value_typeIi12CanMessage_tEEEEPT_RS4_)
                  00022360    0000000c     Can.obj (.text:_ZNSt3__29addressofINS_15__tree_end_nodeIPNS_16__tree_node_baseIPvEEEEEEPT_RS7_)
                  0002236c    0000000c     Can.obj (.text:_ZNSt3__29addressofINS_4pairIKi12CanMessage_tEEEEPT_RS5_)
                  00022378    0000000c     Can.obj (.text:_ZNSt3__29addressofIPNS_16__tree_node_baseIPvEEEEPT_RS5_)
                  00022384    0000000c     Handler.obj (.text:_ZNSt3__29addressofIhEEPT_RS1_)
                  00022390    0000000c     Can.obj (.text:_ZNSt3__29allocatorI12CanMessage_tEC1Ev)
                  0002239c    0000000c     Can.obj (.text:_ZNSt3__29allocatorI12CanMessage_tEC2Ev)
                  000223a8    0000000c     NetReceive.obj (.text:_ZNSt3__29allocatorI19messageIncomingInfoE7destroyEPS1_)
                  000223b4    0000000c     NetReceive.obj (.text:_ZNSt3__29allocatorI19messageIncomingInfoEC1Ev)
                  000223c0    0000000c     NetReceive.obj (.text:_ZNSt3__29allocatorI19messageIncomingInfoEC2Ev)
                  000223cc    0000000c     Can.obj (.text:_ZNSt3__29allocatorINS_11__tree_nodeINS_12__value_typeIi12CanMessage_tEEPvEEEC1Ev)
                  000223d8    0000000c     Can.obj (.text:_ZNSt3__29allocatorINS_11__tree_nodeINS_12__value_typeIi12CanMessage_tEEPvEEEC2Ev)
                  000223e4    0000000c     ArgumentArray.obj (.text:_ZNSt3__29allocatorINS_5tupleIJNS_12basic_stringIcNS_11char_traitsIcEENS0_IcEEEE8ArgumentEEEEC1Ev)
                  000223f0    0000000c     ArgumentArray.obj (.text:_ZNSt3__29allocatorINS_5tupleIJNS_12basic_stringIcNS_11char_traitsIcEENS0_IcEEEE8ArgumentEEEEC2Ev)
                  000223fc    0000000c     Can.obj (.text:_ZNSt3__29allocatorIP12CanMessage_tE7destroyEPS2_)
                  00022408    0000000c     Can.obj (.text:_ZNSt3__29allocatorIP12CanMessage_tEC1Ev)
                  00022414    0000000c     Can.obj (.text:_ZNSt3__29allocatorIP12CanMessage_tEC2Ev)
                  00022420    0000000c     NetReceive.obj (.text:_ZNSt3__29allocatorIP19messageIncomingInfoE7destroyEPS2_)
                  0002242c    0000000c     NetReceive.obj (.text:_ZNSt3__29allocatorIP19messageIncomingInfoEC1Ev)
                  00022438    0000000c     NetReceive.obj (.text:_ZNSt3__29allocatorIP19messageIncomingInfoEC2Ev)
                  00022444    0000000c     Handler.obj (.text:_ZNSt3__29allocatorIhE7destroyEPh)
                  00022450    0000000c     Handler.obj (.text:_ZNSt3__29allocatorIhEC1Ev)
                  0002245c    0000000c     Handler.obj (.text:_ZNSt3__29allocatorIhEC2Ev)
                  00022468    0000000c     ArgumentArray.obj (.text:_ZNSt3__29allocatorItE7destroyEPt)
                  00022474    0000000c     Codec.obj (.text:_ZNSt3__29allocatorItEC1Ev)
                  00022480    0000000c     Codec.obj (.text:_ZNSt3__29allocatorItEC2Ev)
                  0002248c    0000000c     rtsv7M4_T_le_v4SPD16_eabi.lib : ios.cpp.obj (.text:_ZNSt3__29basic_iosIcNS_11char_traitsIcEEEC2Ev)
                  00022498    0000000c                                   : new.cpp.obj (.text:_ZSt15get_new_handlerv)
                  000224a4    0000000c                                   : ios.cpp.obj (.text:_ZTv0_n12_NSt3__213basic_istreamIcNS_11char_traitsIcEEED0Ev)
                  000224b0    0000000c                                   : ios.cpp.obj (.text:_ZTv0_n12_NSt3__213basic_istreamIcNS_11char_traitsIcEEED1Ev)
                  000224bc    0000000c                                   : ios.cpp.obj (.text:_ZTv0_n12_NSt3__213basic_ostreamIcNS_11char_traitsIcEEED0Ev)
                  000224c8    0000000c                                   : ios.cpp.obj (.text:_ZTv0_n12_NSt3__213basic_ostreamIcNS_11char_traitsIcEEED1Ev)
                  000224d4    0000000c                                   : ios.cpp.obj (.text:_ZTv0_n12_NSt3__214basic_iostreamIcNS_11char_traitsIcEEED0Ev)
                  000224e0    0000000c                                   : ios.cpp.obj (.text:_ZTv0_n12_NSt3__214basic_iostreamIcNS_11char_traitsIcEEED1Ev)
                  000224ec    0000000c                                   : dtor_list.c.obj (.text:__cxa_finalize)
                  000224f8    0000000c                                   : guard.c.obj (.text:__cxa_guard_acquire)
                  00022504    0000000c                                   : _lock.c.obj (.text:_register_lock)
                  00022510    0000000c                                   : _lock.c.obj (.text:_register_unlock)
                  0002251c    0000000c                                   : copy_zero_init.c.obj (.text:decompress:ZI:__TI_zero_init)
                  00022528    0000000c                                   : none_mb.c.obj (.text:mbrlen)
                  00022534    0000000c                                   : none_mb.c.obj (.text:mbsnrtowcs_l)
                  00022540    0000000c     empty_pem4f.oem4f (.text:ti_sysbios_BIOS_RtsGateProxy_enter__E)
                  0002254c    00000004     rtsv7M4_T_le_v4SPD16_eabi.lib : string.cpp.obj (.text:_ZNSt3__212basic_stringIcNS_11char_traitsIcEENS_9allocatorIcEEE7__allocEv)
                  00022550    0000000c     sysbios.aem4f : BIOS.obj (.text:ti_sysbios_family_arm_lm4_Timer_getMaxTicks__E)
                  0002255c    00000004     rtsv7M4_T_le_v4SPD16_eabi.lib : ios.cpp.obj (.text:_ZNSt3__215basic_streambufIcNS_11char_traitsIcEEE4syncEv)
                  00022560    0000000c     sysbios.aem4f : BIOS.obj (.text:ti_sysbios_family_arm_lm4_TimestampProvider_startTimer__E)
                  0002256c    00000004     rtsv7M4_T_le_v4SPD16_eabi.lib : ios.cpp.obj (.text:_ZNSt3__215basic_streambufIcNS_11char_traitsIcEEE9showmanycEv)
                  00022570    0000000c     sysbios.aem4f : BIOS.obj (.text:ti_sysbios_family_arm_m3_Hwi_disableFxn__E)
                  0002257c    00000004     rtsv7M4_T_le_v4SPD16_eabi.lib : ios.cpp.obj (.text:_ZNSt3__215basic_streambufIcNS_11char_traitsIcEEEC2Ev)
                  00022580    0000000c     sysbios.aem4f : BIOS.obj (.text:ti_sysbios_family_arm_m3_TaskSupport_checkStack__E)
                  0002258c    00000004     rtsv7M4_T_le_v4SPD16_eabi.lib : ios.cpp.obj (.text:_ZNSt3__215basic_streambufIcNS_11char_traitsIcEEED2Ev)
                  00022590    0000000c     sysbios.aem4f : BIOS.obj (.text:ti_sysbios_family_arm_m3_TaskSupport_getStackAlignment__E)
                  0002259c    00000004     rtsv7M4_T_le_v4SPD16_eabi.lib : string.cpp.obj (.text:_ZNSt3__220__throw_out_of_rangeEPKc)
                  000225a0    0000000c     sysbios.aem4f : BIOS.obj (.text:ti_sysbios_gates_GateHwi_enter__E)
                  000225ac    0000000c     empty_pem4f.oem4f (.text:ti_sysbios_heaps_HeapMem_Module_GateProxy_enter__E)
                  000225b8    0000000c     empty_pem4f.oem4f (.text:ti_sysbios_heaps_HeapMem_Module_GateProxy_query__E)
                  000225c4    0000000c     empty_pem4f.oem4f (.text:ti_sysbios_knl_Clock_TimerProxy_getMaxTicks__E)
                  000225d0    0000000c     empty_pem4f.oem4f (.text:ti_sysbios_knl_Clock_TimerProxy_getPeriod__E)
                  000225dc    0000000c     empty_pem4f.oem4f (.text:ti_sysbios_knl_Clock_TimerProxy_start__E)
                  000225e8    0000000c     sysbios.aem4f : BIOS.obj (.text:ti_sysbios_knl_Clock_tickStart__E)
                  000225f4    0000000c     empty_pem4f.oem4f (.text:ti_sysbios_knl_Queue_destruct)
                  00022600    0000000c     empty_pem4f.oem4f (.text:ti_sysbios_knl_Semaphore_destruct)
                  0002260c    0000000c     rtsv7M4_T_le_v4SPD16_eabi.lib : none_mb.c.obj (.text:wcsnrtombs_l)
                  00022618    0000000c     empty_pem4f.oem4f (.text:xdc_iargToPtr)
                  00022624    0000000c     ti.targets.arm.rtsarm.aem4f : Error.oem4f (.text:xdc_runtime_Error_init__E)
                  00022630    0000000c                                 : Gate.oem4f (.text:xdc_runtime_Gate_enterSystem__E)
                  0002263c    0000000c                                 : Memory.oem4f (.text:xdc_runtime_Memory_calloc__E)
                  00022648    0000000c                                 : Memory.oem4f (.text:xdc_runtime_Memory_getMaxDefaultTypeAlign__E)
                  00022654    0000000c     empty_pem4f.oem4f (.text:xdc_runtime_System_Module_GateProxy_enter__E)
                  00022660    0000000c     empty_pem4f.oem4f (.text:xdc_runtime_System_SupportProxy_abort__E)
                  0002266c    0000000c     empty_pem4f.oem4f (.text:xdc_runtime_System_SupportProxy_exit__E)
                  00022678    0000000c     empty_pem4f.oem4f (.text:xdc_runtime_Timestamp_SupportProxy_get64__E)
                  00022684    0000000c     empty_pem4f.oem4f (.text:xdc_runtime_Timestamp_SupportProxy_getFreq__E)
                  00022690    0000000a     driverlib.lib : can.obj (.text:CANEnable)
                  0002269a    0000000a     Can.obj (.text:_ZN3Can20discoverDestinationsEv)
                  000226a4    0000000a     Can.obj (.text:_ZN3Can6wakeupEv)
                  000226ae    0000000a     Can.obj (.text:_ZN3Can8shutdownEv)
                  000226b8    0000000a     rtsv7M4_T_le_v4SPD16_eabi.lib : string.cpp.obj (.text:_ZNKSt3__212basic_stringIcNS_11char_traitsIcEENS_9allocatorIcEEE13get_allocatorEv)
                  000226c2    0000000a                                   : locale.cpp.obj (.text:_ZNKSt3__25ctypeIcE5widenEPKcS3_Pc)
                  000226cc    0000000a                                   : locale.cpp.obj (.text:_ZNKSt3__25ctypeIcE5widenEc)
                  000226d6    0000000a                                   : locale.cpp.obj (.text:_ZNKSt3__25ctypeIcE6narrowEcc)
                  000226e0    0000000a                                   : locale.cpp.obj (.text:_ZNKSt3__25ctypeIcE7toupperEc)
                  000226ea    0000000a                                   : locale.cpp.obj (.text:_ZNKSt3__25ctypeIwE2isEhw)
                  000226f4    0000000a                                   : locale.cpp.obj (.text:_ZNKSt3__25ctypeIwE5widenEPKcS3_Pw)
                  000226fe    0000000a                                   : locale.cpp.obj (.text:_ZNKSt3__25ctypeIwE5widenEc)
                  00022708    0000000a                                   : locale.cpp.obj (.text:_ZNKSt3__28numpunctIcE13thousands_sepEv)
                  00022712    0000000a                                   : locale.cpp.obj (.text:_ZNKSt3__28numpunctIcE8groupingEv)
                  0002271c    0000000a                                   : locale.cpp.obj (.text:_ZNKSt3__28numpunctIcE9falsenameEv)
                  00022726    0000000a                                   : locale.cpp.obj (.text:_ZNKSt3__28numpunctIwE13thousands_sepEv)
                  00022730    0000000a                                   : locale.cpp.obj (.text:_ZNKSt3__28numpunctIwE8groupingEv)
                  0002273a    0000000a                                   : locale.cpp.obj (.text:_ZNKSt3__28numpunctIwE9falsenameEv)
                  00022744    0000000a     main.obj (.text:_ZNSt3__220__throw_length_errorEPKc)
                  0002274e    0000000a     ArgumentArray.obj (.text:_ZNSt3__26vectorINS_5tupleIJNS_12basic_stringIcNS_11char_traitsIcEENS_9allocatorIcEEEE8ArgumentEEENS5_IS9_EEE24__RAII_IncreaseAnnotator6__doneEv)
                  00022758    0000000a     ArgumentArray.obj (.text:_ZNSt3__26vectorINS_5tupleIJNS_12basic_stringIcNS_11char_traitsIcEENS_9allocatorIcEEEE8ArgumentEEENS5_IS9_EEE26__invalidate_all_iteratorsEv)
                  00022762    0000000a     Handler.obj (.text:_ZNSt3__26vectorIhNS_9allocatorIhEEE24__RAII_IncreaseAnnotator6__doneEv)
                  0002276c    0000000a     ArgumentArray.obj (.text:_ZNSt3__26vectorItNS_9allocatorItEEE24__RAII_IncreaseAnnotator6__doneEv)
                  00022776    0000000a     ArgumentArray.obj (.text:_ZNSt3__26vectorItNS_9allocatorItEEE26__invalidate_all_iteratorsEv)
                  00022780    0000000a     rtsv7M4_T_le_v4SPD16_eabi.lib : guard.c.obj (.text:__cxa_guard_release)
                  0002278a    0000000a                                   : sprintf.c.obj (.text:_outc)
                  00022794    00000008     driverlib.lib : can.obj (.text:CANIntEnable)
                  0002279c    00000008     main.obj (.text:_Z13clockHandler1v)
                  000227a4    00000008     rtsv7M4_T_le_v4SPD16_eabi.lib : locale.cpp.obj (.text:_ZNKSt3__26locale5__imp9use_facetEl)
                  000227ac    00000008                                   : locale.cpp.obj (.text:_ZNKSt3__27codecvtIDiciE10do_unshiftERiPcS3_RS3_)
                  000227b4    00000008                                   : locale.cpp.obj (.text:_ZNKSt3__27codecvtIDsciE10do_unshiftERiPcS3_RS3_)
                  000227bc    00000008                                   : locale.cpp.obj (.text:_ZNKSt3__27codecvtIcciE10do_unshiftERiPcS3_RS3_)
                  000227c4    00000008                                   : string.cpp.obj (.text:_ZNSt3__211char_traitsIcE4moveEPcPKcj)
                  000227cc    00000008                                   : string.cpp.obj (.text:_ZNSt3__211char_traitsIwE4copyEPwPKwj)
                  000227d4    00000008                                   : string.cpp.obj (.text:_ZNSt3__211char_traitsIwE4moveEPwPKwj)
                  000227dc    00000008                                   : ios.cpp.obj (.text:_ZNSt3__215basic_streambufIcNS_11char_traitsIcEEE4setgEPcS4_S4_)
                  000227e4    00000008                                   : ios.cpp.obj (.text:_ZNSt3__215basic_streambufIcNS_11char_traitsIcEEE4setpEPcS4_)
                  000227ec    00000008                                   : ios.cpp.obj (.text:_ZNSt3__215basic_streambufIcNS_11char_traitsIcEEE5pbumpEi)
                  000227f4    00000008                                   : ios.cpp.obj (.text:_ZNSt3__215basic_streambufIcNS_11char_traitsIcEEE7__pbumpEi)
                  000227fc    00000008                                   : locale.cpp.obj (.text:_ZNSt3__25ctypeIcE13classic_tableEv)
                  00022804    00000008                                   : new.cpp.obj (.text:_ZdlPv)
                  0002280c    00000008                                   : errno.c.obj (.text:__aeabi_errno_addr)
                  00022814    00000008                                   : sscanf.c.obj (.text:_uninpchar)
                  0002281c    00000008     empty_pem4f.oem4f (.text:ti_sysbios_family_arm_lm4_Timer_Module__startupDone__S)
                  00022824    00000008     sysbios.aem4f : BIOS.obj (.text:ti_sysbios_family_arm_lm4_Timer_masterDisable__I)
                  0002282c    00000008     empty_pem4f.oem4f (.text:ti_sysbios_family_arm_m3_Hwi_Module__startupDone__S)
                  00022834    00000004     rtsv7M4_T_le_v4SPD16_eabi.lib : locale.cpp.obj (.text:_ZNSt3__221__throw_runtime_errorEPKc)
                  00022838    00000008     sysbios.aem4f : BIOS.obj (.text:ti_sysbios_family_arm_m3_Hwi_doSwiRestore__I)
                  00022840    00000008                   : BIOS.obj (.text:ti_sysbios_family_arm_m3_Hwi_startup__E)
                  00022848    00000008     empty_pem4f.oem4f (.text:ti_sysbios_hal_Hwi_HwiProxy_Module__startupDone__S)
                  00022850    00000008     empty_pem4f.oem4f (.text:ti_sysbios_hal_Hwi_HwiProxy_startup__E)
                  00022858    00000008     empty_pem4f.oem4f (.text:ti_sysbios_hal_Hwi_HwiProxy_switchFromBootStack__E)
                  00022860    00000008     empty_pem4f.oem4f (.text:ti_sysbios_knl_Clock_TimerProxy_Module__startupDone__S)
                  00022868    00000008     empty_pem4f.oem4f (.text:ti_sysbios_knl_Task_SupportProxy_Module__startupDone__S)
                  00022870    00000008     empty_pem4f.oem4f (.text:ti_sysbios_knl_Task_SupportProxy_getStackAlignment__E)
                  00022878    00000008     empty_pem4f.oem4f (.text:ti_sysbios_utils_Load_update__E)
                  00022880    00000008     rtsv7M4_T_le_v4SPD16_eabi.lib : locale_stdio.c.obj (.text:vasprintf_l)
                  00022888    00000008     empty_pem4f.oem4f (.text:xdc_runtime_System_SupportProxy_flush__E)
                  00022890    00000008     empty_pem4f.oem4f (.text:xdc_runtime_System_SupportProxy_ready__E)
                  00022898    00000008     empty_pem4f.oem4f (.text:xdc_runtime_Timestamp_SupportProxy_get32__E)
                  000228a0    00000006     rtsv7M4_T_le_v4SPD16_eabi.lib : locale.cpp.obj (.text:_ZNKSt3__210moneypunctIwLb0EE16do_thousands_sepEv)
                  000228a6    00000006                                   : locale.cpp.obj (.text:_ZNKSt3__210moneypunctIwLb1EE16do_decimal_pointEv)
                  000228ac    00000006                                   : locale.cpp.obj (.text:_ZNKSt3__210moneypunctIwLb1EE16do_thousands_sepEv)
                  000228b2    00000006                                   : string.cpp.obj (.text:_ZNKSt3__212basic_stringIcNS_11char_traitsIcEENS_9allocatorIcEEE8max_sizeEv)
                  000228b8    00000006                                   : locale.cpp.obj (.text:_ZNKSt3__26vectorIPNS_6locale5facetENS_15__sso_allocatorIS3_Lj28EEEE8max_sizeEv)
                  000228be    00000006                                   : ios.cpp.obj (.text:_ZNKSt3__28ios_base6getlocEv)
                  000228c4    00000006                                   : locale.cpp.obj (.text:_ZNKSt3__28messagesIcE6do_getEiiiRKNS_12basic_stringIcNS_11char_traitsIcEENS_9allocatorIcEEEE)
                  000228ca    00000006                                   : locale.cpp.obj (.text:_ZNKSt3__28messagesIcE7do_openERKNS_12basic_stringIcNS_11char_traitsIcEENS_9allocatorIcEEEERKNS_6localeE)
                  000228d0    00000006                                   : locale.cpp.obj (.text:_ZNKSt3__28messagesIwE6do_getEiiiRKNS_12basic_stringIwNS_11char_traitsIwEENS_9allocatorIwEEEE)
                  000228d6    00000006                                   : locale.cpp.obj (.text:_ZNKSt3__28messagesIwE7do_openERKNS_12basic_stringIcNS_11char_traitsIcEENS_9allocatorIcEEEERKNS_6localeE)
                  000228dc    00000006                                   : locale.cpp.obj (.text:_ZNKSt3__28numpunctIcE11do_groupingEv)
                  000228e2    00000006                                   : locale.cpp.obj (.text:_ZNKSt3__28numpunctIwE11do_groupingEv)
                  000228e8    00000006     Codec.obj (.text:_ZNSt3__211char_traitsIcE3eofEv)
                  000228ee    00000006     rtsv7M4_T_le_v4SPD16_eabi.lib : string.cpp.obj (.text:_ZNSt3__211char_traitsIwE6assignERwRKw)
                  000228f4    00000006                                   : string.cpp.obj (.text:_ZNSt3__212basic_stringIcNS_11char_traitsIcEENS_9allocatorIcEEE6resizeEj)
                  000228fa    00000006                                   : ios.cpp.obj (.text:_ZNSt3__215basic_streambufIcNS_11char_traitsIcEEE8overflowEi)
                  00022900    00000006                                   : ios.cpp.obj (.text:_ZNSt3__215basic_streambufIcNS_11char_traitsIcEEE9pbackfailEi)
                  00022906    00000006                                   : ios.cpp.obj (.text:_ZNSt3__215basic_streambufIcNS_11char_traitsIcEEE9underflowEv)
                  0002290c    00000006                                   : ios.cpp.obj (.text:_ZThn8_NSt3__214basic_iostreamIcNS_11char_traitsIcEEED0Ev)
                  00022912    00000006                                   : ios.cpp.obj (.text:_ZThn8_NSt3__214basic_iostreamIcNS_11char_traitsIcEEED1Ev)
                  00022918    00000006                                   : dtor_list.c.obj (.text:__cxa_ia64_exit)
                  0002291e    00000006                                   : pure_virt.c.obj (.text:__cxa_pure_virtual)
                  00022924    00000006     Boot.aem4f : Boot_sysctl.oem4f (.text:ti_catalog_arm_cortexm4_tiva_ce_Boot_sysCtlDelayI__I)
                  0002292a    00000006     rtsv7M4_T_le_v4SPD16_eabi.lib : wmemcpy.c.obj (.text:wmemcpy)
                  00022930    00000006     sysbios.aem4f : BIOS.obj (.text:ti_sysbios_family_arm_lm4_TimestampProvider_Module_startup__E)
                  00022936    00000002     --HOLE-- [fill = 0]
                  00022938    00000006                   : BIOS.obj (.text:ti_sysbios_family_arm_m3_Hwi_doTaskRestore__I)
                  0002293e    00000002     --HOLE-- [fill = 0]
                  00022940    00000006                   : BIOS.obj (.text:ti_sysbios_family_arm_m3_Hwi_restoreFxn__E)
                  00022946    00000002     --HOLE-- [fill = 0]
                  00022948    00000006                   : BIOS.obj (.text:ti_sysbios_gates_GateHwi_leave__E)
                  0002294e    00000002     --HOLE-- [fill = 0]
                  00022950    00000006                   : BIOS.obj (.text:ti_sysbios_heaps_HeapMem_isBlocking__E)
                  00022956    00000002     --HOLE-- [fill = 0]
                  00022958    00000006                   : BIOS.obj (.text:ti_sysbios_knl_Queue_Instance_init__E)
                  0002295e    00000002     --HOLE-- [fill = 0]
                  00022960    00000006                   : BIOS.obj (.text:ti_sysbios_knl_Swi_startup__E)
                  00022966    00000006     rtsv7M4_T_le_v4SPD16_eabi.lib : wmemmove.c.obj (.text:wmemmove)
                  0002296c    00000006     ti.targets.arm.rtsarm.aem4f : System.oem4f (.text:xdc_runtime_System_Module_startup__E)
                  00022972    00000004     rtsv7M4_T_le_v4SPD16_eabi.lib : string.cpp.obj (.text:_ZNSt3__222__compressed_pair_elemINS_12basic_stringIwNS_11char_traitsIwEENS_9allocatorIwEEE5__repELi0ELb0EEC2Ev)
                  00022976    00000004                                   : string.cpp.obj (.text:_ZNSt3__222__compressed_pair_elemINS_9allocatorIcEELi1ELb1EEC2IS2_vEEOT_)
                  0002297a    00000004                                   : string.cpp.obj (.text:_ZNSt3__222__compressed_pair_elemINS_9allocatorIwEELi1ELb1EEC2IS2_vEEOT_)
                  0002297e    00000004                                   : locale.cpp.obj (.text:_ZNSt3__25ctypeIwED1Ev)
                  00022982    00000004                                   : locale.cpp.obj (.text:_ZNSt3__26locale5facetD1Ev)
                  00022986    00000004                                   : locale.cpp.obj (.text:_ZNSt3__27codecvtIDiciED1Ev)
                  0002298a    00000004                                   : locale.cpp.obj (.text:_ZNSt3__27codecvtIDsciED1Ev)
                  0002298e    00000004                                   : locale.cpp.obj (.text:_ZNSt3__27codecvtIcciED1Ev)
                  00022992    00000004                                   : locale.cpp.obj (.text:_ZNSt3__27collateIcED1Ev)
                  00022996    00000004                                   : locale.cpp.obj (.text:_ZNSt3__27collateIwED1Ev)
                  0002299a    00000004                                   : locale.cpp.obj (.text:_ZNSt3__27num_getIcNS_19istreambuf_iteratorIcNS_11char_traitsIcEEEEED1Ev)
                  0002299e    00000004                                   : locale.cpp.obj (.text:_ZNSt3__27num_getIwNS_19istreambuf_iteratorIwNS_11char_traitsIwEEEEED1Ev)
                  000229a2    00000004                                   : locale.cpp.obj (.text:_ZNSt3__27num_putIcNS_19ostreambuf_iteratorIcNS_11char_traitsIcEEEEED1Ev)
                  000229a6    00000004                                   : locale.cpp.obj (.text:_ZNSt3__27num_putIwNS_19ostreambuf_iteratorIwNS_11char_traitsIwEEEEED1Ev)
                  000229aa    00000004                                   : locale.cpp.obj (.text:_ZNSt3__28messagesIcED1Ev)
                  000229ae    00000004                                   : locale.cpp.obj (.text:_ZNSt3__28messagesIwED1Ev)
                  000229b2    00000004                                   : locale.cpp.obj (.text:_ZNSt3__28time_getIcNS_19istreambuf_iteratorIcNS_11char_traitsIcEEEEED1Ev)
                  000229b6    00000004                                   : locale.cpp.obj (.text:_ZNSt3__28time_getIwNS_19istreambuf_iteratorIwNS_11char_traitsIwEEEEED1Ev)
                  000229ba    00000004                                   : ios.cpp.obj (.text:_ZNSt3__29basic_iosIcNS_11char_traitsIcEEED1Ev)
                  000229be    00000004                                   : ios.cpp.obj (.text:_ZNSt3__29basic_iosIcNS_11char_traitsIcEEED2Ev)
                  000229c2    00000004                                   : locale.cpp.obj (.text:_ZNSt3__29money_getIcNS_19istreambuf_iteratorIcNS_11char_traitsIcEEEEED1Ev)
                  000229c6    00000004                                   : locale.cpp.obj (.text:_ZNSt3__29money_getIwNS_19istreambuf_iteratorIwNS_11char_traitsIwEEEEED1Ev)
                  000229ca    00000004                                   : locale.cpp.obj (.text:_ZNSt3__29money_putIcNS_19ostreambuf_iteratorIcNS_11char_traitsIcEEEEED1Ev)
                  000229ce    00000004                                   : locale.cpp.obj (.text:_ZNSt3__29money_putIwNS_19ostreambuf_iteratorIwNS_11char_traitsIwEEEEED1Ev)
                  000229d2    00000004                                   : exception.cpp.obj (.text:_ZSt18uncaught_exceptionv)
                  000229d6    00000004                                   : locale.cpp.obj (.text:_ZZNKSt3__27num_putIcNS_19ostreambuf_iteratorIcNS_11char_traitsIcEEEEE6do_putES4_RNS_8ios_baseEcdENUlPvE0_4_FUNES8_)
                  000229da    00000004                                   : locale.cpp.obj (.text:_ZZNKSt3__27num_putIcNS_19ostreambuf_iteratorIcNS_11char_traitsIcEEEEE6do_putES4_RNS_8ios_baseEcdENUlPvE_4_FUNES8_)
                  000229de    00000004                                   : locale.cpp.obj (.text:_ZZNKSt3__27num_putIcNS_19ostreambuf_iteratorIcNS_11char_traitsIcEEEEE6do_putES4_RNS_8ios_baseEceENUlPvE0_4_FUNES8_)
                  000229e2    00000004                                   : locale.cpp.obj (.text:_ZZNKSt3__27num_putIcNS_19ostreambuf_iteratorIcNS_11char_traitsIcEEEEE6do_putES4_RNS_8ios_baseEceENUlPvE_4_FUNES8_)
                  000229e6    00000004                                   : locale.cpp.obj (.text:_ZZNKSt3__27num_putIwNS_19ostreambuf_iteratorIwNS_11char_traitsIwEEEEE6do_putES4_RNS_8ios_baseEwdENUlPvE0_4_FUNES8_)
                  000229ea    00000004                                   : locale.cpp.obj (.text:_ZZNKSt3__27num_putIwNS_19ostreambuf_iteratorIwNS_11char_traitsIwEEEEE6do_putES4_RNS_8ios_baseEwdENUlPvE_4_FUNES8_)
                  000229ee    00000004                                   : locale.cpp.obj (.text:_ZZNKSt3__27num_putIwNS_19ostreambuf_iteratorIwNS_11char_traitsIwEEEEE6do_putES4_RNS_8ios_baseEweENUlPvE0_4_FUNES8_)
                  000229f2    00000004                                   : locale.cpp.obj (.text:_ZZNKSt3__27num_putIwNS_19ostreambuf_iteratorIwNS_11char_traitsIwEEEEE6do_putES4_RNS_8ios_baseEweENUlPvE_4_FUNES8_)
                  000229f6    00000004                                   : locale.cpp.obj (.text:_ZZNKSt3__29money_getIcNS_19istreambuf_iteratorIcNS_11char_traitsIcEEEEE6do_getES4_S4_bRNS_8ios_baseERjReENUlPvE_4_FUNESA_)
                  000229fa    00000004                                   : locale.cpp.obj (.text:_ZZNKSt3__29money_getIwNS_19istreambuf_iteratorIwNS_11char_traitsIwEEEEE6do_getES4_S4_bRNS_8ios_baseERjReENUlPvE_4_FUNESA_)
                  000229fe    00000004                                   : locale.cpp.obj (.text:_ZZNKSt3__29money_putIcNS_19ostreambuf_iteratorIcNS_11char_traitsIcEEEEE6do_putES4_bRNS_8ios_baseEcRKNS_12basic_stringIcS3_NS_9allocatorIcEEEEENUlPvE_4_FUNESE_)
                  00022a02    00000004                                   : locale.cpp.obj (.text:_ZZNKSt3__29money_putIcNS_19ostreambuf_iteratorIcNS_11char_traitsIcEEEEE6do_putES4_bRNS_8ios_baseEceENUlPvE0_4_FUNES8_)
                  00022a06    00000004                                   : locale.cpp.obj (.text:_ZZNKSt3__29money_putIcNS_19ostreambuf_iteratorIcNS_11char_traitsIcEEEEE6do_putES4_bRNS_8ios_baseEceENUlPvE1_4_FUNES8_)
                  00022a0a    00000004                                   : locale.cpp.obj (.text:_ZZNKSt3__29money_putIcNS_19ostreambuf_iteratorIcNS_11char_traitsIcEEEEE6do_putES4_bRNS_8ios_baseEceENUlPvE_4_FUNES8_)
                  00022a0e    00000004                                   : locale.cpp.obj (.text:_ZZNKSt3__29money_putIwNS_19ostreambuf_iteratorIwNS_11char_traitsIwEEEEE6do_putES4_bRNS_8ios_baseEwRKNS_12basic_stringIwS3_NS_9allocatorIwEEEEENUlPvE_4_FUNESE_)
                  00022a12    00000004                                   : locale.cpp.obj (.text:_ZZNKSt3__29money_putIwNS_19ostreambuf_iteratorIwNS_11char_traitsIwEEEEE6do_putES4_bRNS_8ios_baseEweENUlPvE0_4_FUNES8_)
                  00022a16    00000004                                   : locale.cpp.obj (.text:_ZZNKSt3__29money_putIwNS_19ostreambuf_iteratorIwNS_11char_traitsIwEEEEE6do_putES4_bRNS_8ios_baseEweENUlPvE1_4_FUNES8_)
                  00022a1a    00000004                                   : locale.cpp.obj (.text:_ZZNKSt3__29money_putIwNS_19ostreambuf_iteratorIwNS_11char_traitsIwEEEEE6do_putES4_bRNS_8ios_baseEweENUlPvE_4_FUNES8_)
                  00022a1e    00000004                                   : locale.cpp.obj (.text:_ZZNSt3__214__scan_keywordINS_19istreambuf_iteratorIcNS_11char_traitsIcEEEEPKNS_12basic_stringIcS3_NS_9allocatorIcEEEENS_5ctypeIcEEEET0_RT_SE_SD_SD_RKT1_RjbENUlPvE_4_FUNESK_)
                  00022a22    00000004                                   : locale.cpp.obj (.text:_ZZNSt3__214__scan_keywordINS_19istreambuf_iteratorIwNS_11char_traitsIwEEEEPKNS_12basic_stringIwS3_NS_9allocatorIwEEEENS_5ctypeIwEEEET0_RT_SE_SD_SD_RKT1_RjbENUlPvE_4_FUNESK_)
                  00022a26    00000004                                   : locale.cpp.obj (.text:_ZZNSt3__219__double_or_nothingIcEEvRNS_10unique_ptrIT_PFvPvEEERPS2_S9_ENUlS3_E_4_FUNES3_)
                  00022a2a    00000004                                   : locale.cpp.obj (.text:_ZZNSt3__219__double_or_nothingIjEEvRNS_10unique_ptrIT_PFvPvEEERPS2_S9_ENUlS3_E_4_FUNES3_)
                  00022a2e    00000004                                   : locale.cpp.obj (.text:_ZZNSt3__219__double_or_nothingIwEEvRNS_10unique_ptrIT_PFvPvEEERPS2_S9_ENUlS3_E_4_FUNES3_)
                  00022a32    00000004                                   : new.cpp.obj (.text:_ZdaPv)
                  00022a36    00000004                                   : new.cpp.obj (.text:_ZdlPvj)
                  00022a3a    00000004                                   : new.cpp.obj (.text:_Znaj)
                  00022a3e    00000004                                   : none_mb.c.obj (.text:___mb_cur_max_l)
                  00022a42    00000004                                   : error.c.obj (.text:__abort_execution)
                  00022a46    00000004                                   : fprintf.c.obj (.text:_outc)
                  00022a4a    00000004                                   : printf.c.obj (.text:_outc)
                  00022a4e    00000004                                   : fprintf.c.obj (.text:_outs)
                  00022a52    00000004                                   : printf.c.obj (.text:_outs)
                  00022a56    00000004                                   : exit.c.obj (.text:abort:abort)
                  00022a5a    00000004                                   : none_mb.c.obj (.text:mbrlen_l)
                  00022a5e    00000004                                   : none_mb.c.obj (.text:mbrtowc_l)
                  00022a62    00000004                                   : none_mb.c.obj (.text:mbsrtowcs_l)
                  00022a66    00000004                                   : none_mb.c.obj (.text:mbtowc_l)
                  00022a6a    00000004                                   : xlocale.c.obj (.text:newlocale)
                  00022a6e    00000004                                   : locale_time.c.obj (.text:strftime_l)
                  00022a72    00000004                                   : locale_stdlib.c.obj (.text:strtof_l)
                  00022a76    00000004                                   : locale_stdlib.c.obj (.text:strtoll_l)
                  00022a7a    00000004                                   : locale_stdlib.c.obj (.text:strtoull_l)
                  00022a7e    00000002     --HOLE-- [fill = 0]
                  00022a80    00000004     sysbios.aem4f : BIOS.obj (.text:ti_sysbios_family_arm_lm4_Timer_getPeriod__E)
                  00022a84    00000004                   : BIOS.obj (.text:ti_sysbios_family_arm_lm4_Timer_masterEnable__I)
                  00022a88    00000004     empty_pem4f.oem4f (.text:ti_sysbios_family_arm_m3_TaskSupport_Module__startupDone__S)
                  00022a8c    00000004     ti.uia.loggers.aem4f : LoggerStopMode.oem4f (.text:ti_uia_loggers_LoggerStopMode_getContents__E)
                  00022a90    00000004     sysbios.aem4f : BIOS.obj (.text:ti_sysbios_gates_GateHwi_query__E)
                  00022a94    00000004     ti.uia.loggers.aem4f : LoggerStopMode.oem4f (.text:ti_uia_loggers_LoggerStopMode_getInstanceId__E)
                  00022a98    00000004     sysbios.aem4f : BIOS.obj (.text:ti_sysbios_gates_GateMutex_query__E)
                  00022a9c    00000004     ti.uia.loggers.aem4f : LoggerStopMode.oem4f (.text:ti_uia_loggers_LoggerStopMode_getMaxLength__E)
                  00022aa0    00000004     sysbios.aem4f : BIOS.obj (.text:ti_sysbios_knl_Task_startup__E)
                  00022aa4    00000004     ti.uia.loggers.aem4f : LoggerStopMode.oem4f (.text:ti_uia_loggers_LoggerStopMode_getPriority__E)
                  00022aa8    00000004                          : LoggerStopMode.oem4f (.text:ti_uia_loggers_LoggerStopMode_getTransferType__E)
                  00022aac    00000004     rtsv7M4_T_le_v4SPD16_eabi.lib : none_mb.c.obj (.text:wcrtomb_l)
                  00022ab0    00000004     ti.targets.arm.rtsarm.aem4f : Error.oem4f (.text:xdc_runtime_Error_getSite__E)
                  00022ab4    00000004                                 : System.oem4f (.text:xdc_runtime_System_aprintf_va__F)
                  00022ab8    00000004                                 : System.oem4f (.text:xdc_runtime_System_printf_va__F)
                  00022abc    00000004     --HOLE-- [fill = 0]
                  00022ac0    00000002     sysbios.aem4f : BIOS.obj (.text:ti_sysbios_gates_GateHwi_Instance_init__E)
                  00022ac2    00000006     --HOLE-- [fill = 0]
                  00022ac8    00000002                   : BIOS.obj (.text:ti_sysbios_knl_Clock_logTick__E)

.const     0    00022ad0    00004824     
                  00022ad0    00001fa0     empty_pem4f.oem4f (.const:xdc_runtime_Text_charTab__A)
                  00024a70    000001e4     rtsv7M4_T_le_v4SPD16_eabi.lib : locale.cpp.obj (.const:$O2$$)
                  00024c54    00000101                                   : ctype.c.obj (.const:.string:_ctypes_)
                  00024d55    00000001                                   : locale.cpp.obj (.const:.string:_ZZNKSt3__27num_putIcNS_19ostreambuf_iteratorIcNS_11char_traitsIcEEEEE6do_putES4_RNS_8ios_baseEcdEs)
                  00024d56    00000100     empty_pem4f.oem4f (.const:xdc_runtime_Text_nodeTab__A)
                  00024e56    00000002     rtsv7M4_T_le_v4SPD16_eabi.lib : locale.cpp.obj (.const:.string:_ZZNKSt3__27num_putIcNS_19ostreambuf_iteratorIcNS_11char_traitsIcEEEEE6do_putES4_RNS_8ios_baseEceEs)
                  00024e58    000000f0     Codec.obj (.const:_ZTVNSt3__218basic_stringstreamIcNS_11char_traitsIcEENS_9allocatorIcEEEE)
                  00024f48    000000c8     rtsv7M4_T_le_v4SPD16_eabi.lib : strtod.c.obj (.const:$O1$$)
                  00025010    000000ae                                   : strftime.c.obj (.const:.string)
                  000250be    00000002                                   : locale.cpp.obj (.const:.string:_ZZNKSt3__27num_putIcNS_19ostreambuf_iteratorIcNS_11char_traitsIcEEEEE6do_putES4_RNS_8ios_baseEclEs)
                  000250c0    000000a8                                   : ios.cpp.obj (.const:_ZTVNSt3__214basic_iostreamIcNS_11char_traitsIcEEEE)
                  00025168    00000090     driverlib.lib : gpio.obj (.const:g_pui32GPIOBaseAddrs)
                  000251f8    0000007c     Can.obj (.const:_ZTV3Can)
                  00025274    0000007c     NetComm.obj (.const:_ZTV7NetComm)
                  000252f0    00000070     driverlib.lib : interrupt.obj (.const)
                  00025360    0000006c                   : sysctl.obj (.const:g_pui32Xtals)
                  000253cc    00000060     empty_pem4f.oem4f (.const:ti_uia_loggers_LoggerStopMode_Module__FXNS__C)
                  0002542c    00000058     rtsv7M4_T_le_v4SPD16_eabi.lib : strtof.c.obj (.const:$O1$$)
                  00025484    00000054                                   : locale.cpp.obj (.const:_ZTVNSt3__28time_getIcNS_19istreambuf_iteratorIcNS_11char_traitsIcEEEEEE)
                  000254d8    00000054                                   : locale.cpp.obj (.const:_ZTVNSt3__28time_getIwNS_19istreambuf_iteratorIwNS_11char_traitsIwEEEEEE)
                  0002552c    0000004c                                   : strftime.c.obj (.const:$O1$$)
                  00025578    00000048     empty_pem4f.oem4f (.const:.string)
                  000255c0    00000046     rtsv7M4_T_le_v4SPD16_eabi.lib : locale.cpp.obj (.const:.typeinfo:_ZTSNSt3__29money_getIcNS_19istreambuf_iteratorIcNS_11char_traitsIcEEEEEE)
                  00025606    00000046                                   : locale.cpp.obj (.const:.typeinfo:_ZTSNSt3__29money_getIwNS_19istreambuf_iteratorIwNS_11char_traitsIwEEEEEE)
                  0002564c    00000046                                   : locale.cpp.obj (.const:.typeinfo:_ZTSNSt3__29money_putIcNS_19ostreambuf_iteratorIcNS_11char_traitsIcEEEEEE)
                  00025692    00000046                                   : locale.cpp.obj (.const:.typeinfo:_ZTSNSt3__29money_putIwNS_19ostreambuf_iteratorIwNS_11char_traitsIwEEEEEE)
                  000256d8    00000045     Codec.obj (.const:.typeinfo:_ZTSNSt3__218basic_stringstreamIcNS_11char_traitsIcEENS_9allocatorIcEEEE)
                  0002571d    00000045     rtsv7M4_T_le_v4SPD16_eabi.lib : locale.cpp.obj (.const:.typeinfo:_ZTSNSt3__28time_getIcNS_19istreambuf_iteratorIcNS_11char_traitsIcEEEEEE)
                  00025762    00000045                                   : locale.cpp.obj (.const:.typeinfo:_ZTSNSt3__28time_getIwNS_19istreambuf_iteratorIwNS_11char_traitsIwEEEEEE)
                  000257a7    00000045                                   : locale.cpp.obj (.const:.typeinfo:_ZTSNSt3__28time_putIcNS_19ostreambuf_iteratorIcNS_11char_traitsIcEEEEEE)
                  000257ec    00000045                                   : locale.cpp.obj (.const:.typeinfo:_ZTSNSt3__28time_putIwNS_19ostreambuf_iteratorIwNS_11char_traitsIwEEEEEE)
                  00025831    00000044     Can.obj (.const:.string:_ZZNSt3__29allocatorI12CanMessage_tE8allocateEjPKvEs)
                  00025875    00000044     NetReceive.obj (.const:.string:_ZZNSt3__29allocatorI19messageIncomingInfoE8allocateEjPKvEs)
                  000258b9    00000044     Can.obj (.const:.string:_ZZNSt3__29allocatorINS_11__tree_nodeINS_12__value_typeIi12CanMessage_tEEPvEEE8allocateEjPKvEs)
                  000258fd    00000044     ArgumentArray.obj (.const:.string:_ZZNSt3__29allocatorINS_5tupleIJNS_12basic_stringIcNS_11char_traitsIcEENS0_IcEEEE8ArgumentEEEE8allocateEjPKvEs)
                  00025941    00000044     Can.obj (.const:.string:_ZZNSt3__29allocatorIP12CanMessage_tE8allocateEjPKvEs)
                  00025985    00000044     NetReceive.obj (.const:.string:_ZZNSt3__29allocatorIP19messageIncomingInfoE8allocateEjPKvEs)
                  000259c9    00000044     main.obj (.const:.string:_ZZNSt3__29allocatorIcE8allocateEjPKvEs)
                  00025a0d    00000044     Handler.obj (.const:.string:_ZZNSt3__29allocatorIhE8allocateEjPKvEs)
                  00025a51    00000044     ArgumentArray.obj (.const:.string:_ZZNSt3__29allocatorItE8allocateEjPKvEs)
                  00025a95    00000044     rtsv7M4_T_le_v4SPD16_eabi.lib : string.cpp.obj (.const:.string:_ZZNSt3__29allocatorIwE8allocateEjPKvEs)
                  00025ad9    00000044                                   : locale.cpp.obj (.const:.typeinfo:_ZTSNSt3__27num_getIcNS_19istreambuf_iteratorIcNS_11char_traitsIcEEEEEE)
                  00025b1d    00000044                                   : locale.cpp.obj (.const:.typeinfo:_ZTSNSt3__27num_getIwNS_19istreambuf_iteratorIwNS_11char_traitsIwEEEEEE)
                  00025b61    00000044                                   : locale.cpp.obj (.const:.typeinfo:_ZTSNSt3__27num_putIcNS_19ostreambuf_iteratorIcNS_11char_traitsIcEEEEEE)
                  00025ba5    00000044                                   : locale.cpp.obj (.const:.typeinfo:_ZTSNSt3__27num_putIwNS_19ostreambuf_iteratorIwNS_11char_traitsIwEEEEEE)
                  00025be9    00000003                                   : locale.cpp.obj (.const:.string:_ZZNKSt3__27num_getIcNS_19istreambuf_iteratorIcNS_11char_traitsIcEEEEE6do_getES4_S4_RNS_8ios_baseERjRPvEs)
                  00025bec    00000044                                   : locale.cpp.obj (.const:_ZTVNSt3__25ctypeIwEE)
                  00025c30    00000042     Codec.obj (.const:.typeinfo:_ZTSNSt3__215basic_stringbufIcNS_11char_traitsIcEENS_9allocatorIcEEEE)
                  00025c72    00000002     rtsv7M4_T_le_v4SPD16_eabi.lib : locale.cpp.obj (.const:.string:_ZZNKSt3__27num_putIcNS_19ostreambuf_iteratorIcNS_11char_traitsIcEEEEE6do_putES4_RNS_8ios_baseEcmEs)
                  00025c74    00000040                                   : ios.cpp.obj (.const:_ZTVNSt3__215basic_streambufIcNS_11char_traitsIcEEEE)
                  00025cb4    00000040     Codec.obj (.const:_ZTVNSt3__215basic_stringbufIcNS_11char_traitsIcEENS_9allocatorIcEEEE)
                  00025cf4    00000040     rtsv7M4_T_le_v4SPD16_eabi.lib : locale.cpp.obj (.const:_ZTVNSt3__27num_getIcNS_19istreambuf_iteratorIcNS_11char_traitsIcEEEEEE)
                  00025d34    00000040                                   : locale.cpp.obj (.const:_ZTVNSt3__27num_getIwNS_19istreambuf_iteratorIwNS_11char_traitsIwEEEEEE)
                  00025d74    0000003c     empty_pem4f.oem4f (.const:ti_sysbios_knl_Task_Object__PARAMS__C)
                  00025db0    00000038     rtsv7M4_T_le_v4SPD16_eabi.lib : locale.cpp.obj (.const:_ZTVNSt3__210moneypunctIcLb0EEE)
                  00025de8    00000038                                   : locale.cpp.obj (.const:_ZTVNSt3__210moneypunctIcLb1EEE)
                  00025e20    00000038                                   : locale.cpp.obj (.const:_ZTVNSt3__210moneypunctIwLb0EEE)
                  00025e58    00000038                                   : locale.cpp.obj (.const:_ZTVNSt3__210moneypunctIwLb1EEE)
                  00025e90    00000034                                   : locale.cpp.obj (.const:_ZTVNSt3__25ctypeIcEE)
                  00025ec4    00000034                                   : locale.cpp.obj (.const:_ZTVNSt3__27num_putIcNS_19ostreambuf_iteratorIcNS_11char_traitsIcEEEEEE)
                  00025ef8    00000034                                   : locale.cpp.obj (.const:_ZTVNSt3__27num_putIwNS_19ostreambuf_iteratorIwNS_11char_traitsIwEEEEEE)
                  00025f2c    00000031     Codec.obj (.const:.typeinfo:_ZTSNSt3__215basic_streambufIcNS_11char_traitsIcEEEE)
                  00025f5d    00000003     rtsv7M4_T_le_v4SPD16_eabi.lib : locale.cpp.obj (.const:.string:_ZZNKSt3__27num_getIwNS_19istreambuf_iteratorIwNS_11char_traitsIwEEEEE6do_getES4_S4_RNS_8ios_baseERjRPvEs)
                  00025f60    00000030                                   : string.cpp.obj (.const:$O1$$)
                  00025f90    00000030     Codec.obj (.const:.typeinfo:_ZTSNSt3__214basic_iostreamIcNS_11char_traitsIcEEEE)
                  00025fc0    00000030     Comm.obj (.const:_ZTV4Comm)
                  00025ff0    00000030     rtsv7M4_T_le_v4SPD16_eabi.lib : ios.cpp.obj (.const:_ZTVNSt3__213basic_istreamIcNS_11char_traitsIcEEEE)
                  00026020    00000030                                   : ios.cpp.obj (.const:_ZTVNSt3__213basic_ostreamIcNS_11char_traitsIcEEEE)
                  00026050    00000030                                   : locale.cpp.obj (.const:_ZTVNSt3__27codecvtIDiciEE)
                  00026080    00000030                                   : locale.cpp.obj (.const:_ZTVNSt3__27codecvtIDsciEE)
                  000260b0    00000030                                   : locale.cpp.obj (.const:_ZTVNSt3__27codecvtIcciEE)
                  000260e0    00000030                                   : locale.cpp.obj (.const:_ZTVNSt3__27codecvtIwciEE)
                  00026110    0000002f     Codec.obj (.const:.typeinfo:_ZTSNSt3__213basic_istreamIcNS_11char_traitsIcEEEE)
                  0002613f    0000002f     Codec.obj (.const:.typeinfo:_ZTSNSt3__213basic_ostreamIcNS_11char_traitsIcEEEE)
                  0002616e    0000002a     Codec.obj (.const:.typeinfo:_ZTSNSt3__29basic_iosIcNS_11char_traitsIcEEEE)
                  00026198    00000028     Handler.obj (.const:.string:$P$T52$2)
                  000261c0    00000028     rtsv7M4_T_le_v4SPD16_eabi.lib : locale.cpp.obj (.const:.typeinfo:_ZTINSt3__28time_getIcNS_19istreambuf_iteratorIcNS_11char_traitsIcEEEEEE)
                  000261e8    00000028                                   : locale.cpp.obj (.const:.typeinfo:_ZTINSt3__28time_getIwNS_19istreambuf_iteratorIwNS_11char_traitsIwEEEEEE)
                  00026210    00000028                                   : locale.cpp.obj (.const:_ZTVNSt3__28numpunctIcEE)
                  00026238    00000028                                   : locale.cpp.obj (.const:_ZTVNSt3__28numpunctIwEE)
                  00026260    00000028     empty_pem4f.oem4f (.const:ti_sysbios_heaps_HeapMem_Module__FXNS__C)
                  00026288    00000028     empty_pem4f.oem4f (.const:ti_uia_loggers_LoggerStopMode_Object__PARAMS__C)
                  000262b0    00000028     empty_pem4f.oem4f (.const:xdc_runtime_Startup_sfxnTab__A)
                  000262d8    00000026     rtsv7M4_T_le_v4SPD16_eabi.lib : typeinfo.c.obj (.const:.typeinfo:_ZTSN10__cxxabiv121__vmi_class_type_infoE)
                  000262fe    00000025                                   : typeinfo.c.obj (.const:.typeinfo:_ZTSN10__cxxabiv120__si_class_type_infoE)
                  00026323    00000001                                   : locale.cpp.obj (.const:.string:_ZZNKSt3__27num_putIwNS_19ostreambuf_iteratorIwNS_11char_traitsIwEEEEE6do_putES4_RNS_8ios_baseEwdEs)
                  00026324    00000024     empty_pem4f.oem4f (.const:ti_sysbios_gates_GateHwi_Module__FXNS__C)
                  00026348    00000024     empty_pem4f.oem4f (.const:ti_sysbios_gates_GateMutex_Module__FXNS__C)
                  0002636c    00000024     empty_pem4f.oem4f (.const:ti_sysbios_heaps_HeapMem_Object__PARAMS__C)
                  00026390    00000024     empty_pem4f.oem4f (.const:ti_sysbios_knl_Clock_Object__PARAMS__C)
                  000263b4    00000024     empty_pem4f.oem4f (.const:ti_sysbios_knl_Semaphore_Object__PARAMS__C)
                  000263d8    00000022     rtsv7M4_T_le_v4SPD16_eabi.lib : typeinfo.c.obj (.const:.typeinfo:_ZTSN10__cxxabiv117__class_type_infoE)
                  000263fa    00000022                                   : locale.cpp.obj (.const:.typeinfo:_ZTSNSt3__220__time_get_c_storageIcEE)
                  0002641c    00000022                                   : locale.cpp.obj (.const:.typeinfo:_ZTSNSt3__220__time_get_c_storageIwEE)
                  0002643e    00000002                                   : locale.cpp.obj (.const:.string:_ZZNKSt3__27num_putIwNS_19ostreambuf_iteratorIwNS_11char_traitsIwEEEEE6do_putES4_RNS_8ios_baseEweEs)
                  00026440    00000020                                   : locale.cpp.obj (.const:.typeinfo:_ZTINSt3__210moneypunctIcLb0EEE)
                  00026460    00000020                                   : locale.cpp.obj (.const:.typeinfo:_ZTINSt3__210moneypunctIcLb1EEE)
                  00026480    00000020                                   : locale.cpp.obj (.const:.typeinfo:_ZTINSt3__210moneypunctIwLb0EEE)
                  000264a0    00000020                                   : locale.cpp.obj (.const:.typeinfo:_ZTINSt3__210moneypunctIwLb1EEE)
                  000264c0    00000020     Codec.obj (.const:.typeinfo:_ZTINSt3__214basic_iostreamIcNS_11char_traitsIcEEEE)
                  000264e0    00000020     rtsv7M4_T_le_v4SPD16_eabi.lib : locale.cpp.obj (.const:.typeinfo:_ZTINSt3__25ctypeIcEE)
                  00026500    00000020                                   : locale.cpp.obj (.const:.typeinfo:_ZTINSt3__25ctypeIwEE)
                  00026520    00000020                                   : locale.cpp.obj (.const:.typeinfo:_ZTINSt3__27codecvtIDiciEE)
                  00026540    00000020                                   : locale.cpp.obj (.const:.typeinfo:_ZTINSt3__27codecvtIDsciEE)
                  00026560    00000020                                   : locale.cpp.obj (.const:.typeinfo:_ZTINSt3__27codecvtIcciEE)
                  00026580    00000020                                   : locale.cpp.obj (.const:.typeinfo:_ZTINSt3__27codecvtIwciEE)
                  000265a0    00000020                                   : locale.cpp.obj (.const:.typeinfo:_ZTINSt3__27num_getIcNS_19istreambuf_iteratorIcNS_11char_traitsIcEEEEEE)
                  000265c0    00000020                                   : locale.cpp.obj (.const:.typeinfo:_ZTINSt3__27num_getIwNS_19istreambuf_iteratorIwNS_11char_traitsIwEEEEEE)
                  000265e0    00000020                                   : locale.cpp.obj (.const:.typeinfo:_ZTINSt3__27num_putIcNS_19ostreambuf_iteratorIcNS_11char_traitsIcEEEEEE)
                  00026600    00000020                                   : locale.cpp.obj (.const:.typeinfo:_ZTINSt3__27num_putIwNS_19ostreambuf_iteratorIwNS_11char_traitsIwEEEEEE)
                  00026620    00000020                                   : locale.cpp.obj (.const:.typeinfo:_ZTINSt3__28messagesIcEE)
                  00026640    00000020                                   : locale.cpp.obj (.const:.typeinfo:_ZTINSt3__28messagesIwEE)
                  00026660    00000020                                   : locale.cpp.obj (.const:.typeinfo:_ZTINSt3__28time_putIcNS_19ostreambuf_iteratorIcNS_11char_traitsIcEEEEEE)
                  00026680    00000020                                   : locale.cpp.obj (.const:.typeinfo:_ZTINSt3__28time_putIwNS_19ostreambuf_iteratorIwNS_11char_traitsIwEEEEEE)
                  000266a0    00000020                                   : locale.cpp.obj (.const:.typeinfo:_ZTINSt3__29money_getIcNS_19istreambuf_iteratorIcNS_11char_traitsIcEEEEEE)
                  000266c0    00000020                                   : locale.cpp.obj (.const:.typeinfo:_ZTINSt3__29money_getIwNS_19istreambuf_iteratorIwNS_11char_traitsIwEEEEEE)
                  000266e0    00000020                                   : locale.cpp.obj (.const:.typeinfo:_ZTINSt3__29money_putIcNS_19ostreambuf_iteratorIcNS_11char_traitsIcEEEEEE)
                  00026700    00000020                                   : locale.cpp.obj (.const:.typeinfo:_ZTINSt3__29money_putIwNS_19ostreambuf_iteratorIwNS_11char_traitsIwEEEEEE)
                  00026720    00000020                                   : locale.cpp.obj (.const:_ZTVNSt3__27collateIcEE)
                  00026740    00000020                                   : locale.cpp.obj (.const:_ZTVNSt3__27collateIwEE)
                  00026760    00000020                                   : locale.cpp.obj (.const:_ZTVNSt3__28messagesIcEE)
                  00026780    00000020                                   : locale.cpp.obj (.const:_ZTVNSt3__28messagesIwEE)
                  000267a0    00000020     driverlib.lib : can.obj (.const)
                  000267c0    00000020     empty_pem4f.oem4f (.const:ti_sysbios_gates_GateHwi_Object__DESC__C)
                  000267e0    00000020     empty_pem4f.oem4f (.const:ti_sysbios_gates_GateMutex_Object__DESC__C)
                  00026800    00000020     empty_pem4f.oem4f (.const:ti_sysbios_heaps_HeapMem_Object__DESC__C)
                  00026820    00000020     empty_pem4f.oem4f (.const:ti_sysbios_knl_Clock_Object__DESC__C)
                  00026840    00000020     empty_pem4f.oem4f (.const:ti_sysbios_knl_Queue_Object__DESC__C)
                  00026860    00000020     empty_pem4f.oem4f (.const:ti_sysbios_knl_Semaphore_Object__DESC__C)
                  00026880    00000020     empty_pem4f.oem4f (.const:ti_sysbios_knl_Task_Object__DESC__C)
                  000268a0    00000020     empty_pem4f.oem4f (.const:ti_uia_loggers_LoggerStopMode_Object__DESC__C)
                  000268c0    0000001c     rtsv7M4_T_le_v4SPD16_eabi.lib : locale.cpp.obj (.const:.typeinfo:_ZTSNSt3__210moneypunctIcLb0EEE)
                  000268dc    0000001c                                   : locale.cpp.obj (.const:.typeinfo:_ZTSNSt3__210moneypunctIcLb1EEE)
                  000268f8    0000001c                                   : locale.cpp.obj (.const:.typeinfo:_ZTSNSt3__210moneypunctIwLb0EEE)
                  00026914    0000001c                                   : locale.cpp.obj (.const:.typeinfo:_ZTSNSt3__210moneypunctIwLb1EEE)
                  00026930    0000001c                                   : locale.cpp.obj (.const:_ZTVNSt3__29money_getIcNS_19istreambuf_iteratorIcNS_11char_traitsIcEEEEEE)
                  0002694c    0000001c                                   : locale.cpp.obj (.const:_ZTVNSt3__29money_getIwNS_19istreambuf_iteratorIwNS_11char_traitsIwEEEEEE)
                  00026968    0000001c                                   : locale.cpp.obj (.const:_ZTVNSt3__29money_putIcNS_19ostreambuf_iteratorIcNS_11char_traitsIcEEEEEE)
                  00026984    0000001c                                   : locale.cpp.obj (.const:_ZTVNSt3__29money_putIwNS_19ostreambuf_iteratorIwNS_11char_traitsIwEEEEEE)
                  000269a0    00000019                                   : locale.cpp.obj (.const:.typeinfo:_ZTSNSt3__211__money_getIcEE)
                  000269b9    00000019                                   : locale.cpp.obj (.const:.typeinfo:_ZTSNSt3__211__money_getIwEE)
                  000269d2    00000019                                   : locale.cpp.obj (.const:.typeinfo:_ZTSNSt3__211__money_putIcEE)
                  000269eb    00000019                                   : locale.cpp.obj (.const:.typeinfo:_ZTSNSt3__211__money_putIwEE)
                  00026a04    00000019                                   : locale.cpp.obj (.const:.typeinfo:_ZTSNSt3__214__num_get_baseE)
                  00026a1d    00000019                                   : locale.cpp.obj (.const:.typeinfo:_ZTSNSt3__214__num_put_baseE)
                  00026a36    00000019                                   : memory.cpp.obj (.const:.typeinfo:_ZTSNSt3__214__shared_countE)
                  00026a4f    00000001     empty_pem4f.oem4f (.const:xdc_runtime_Error_policy__C)
                  00026a50    00000018     NetComm.obj (.const:.typeinfo:_ZTI7NetComm)
                  00026a68    00000018     Codec.obj (.const:.typeinfo:_ZTINSt3__213basic_istreamIcNS_11char_traitsIcEEEE)
                  00026a80    00000018     Codec.obj (.const:.typeinfo:_ZTINSt3__213basic_ostreamIcNS_11char_traitsIcEEEE)
                  00026a98    00000018     rtsv7M4_T_le_v4SPD16_eabi.lib : locale.cpp.obj (.const:.typeinfo:_ZTINSt3__29__num_getIcEE)
                  00026ab0    00000018                                   : locale.cpp.obj (.const:.typeinfo:_ZTINSt3__29__num_getIwEE)
                  00026ac8    00000018                                   : locale.cpp.obj (.const:.typeinfo:_ZTINSt3__29__num_putIcEE)
                  00026ae0    00000018                                   : locale.cpp.obj (.const:.typeinfo:_ZTINSt3__29__num_putIwEE)
                  00026af8    00000018                                   : locale.cpp.obj (.const:.typeinfo:_ZTSNSt3__213messages_baseE)
                  00026b10    00000018                                   : locale.cpp.obj (.const:_ZTVNSt3__28time_putIcNS_19ostreambuf_iteratorIcNS_11char_traitsIcEEEEEE)
                  00026b28    00000018                                   : locale.cpp.obj (.const:_ZTVNSt3__28time_putIwNS_19ostreambuf_iteratorIwNS_11char_traitsIwEEEEEE)
                  00026b40    00000018     empty_pem4f.oem4f (.const:ti_sysbios_gates_GateHwi_Object__PARAMS__C)
                  00026b58    00000018     empty_pem4f.oem4f (.const:ti_sysbios_gates_GateMutex_Object__PARAMS__C)
                  00026b70    00000018     empty_pem4f.oem4f (.const:ti_sysbios_knl_Queue_Object__PARAMS__C)
                  00026b88    00000017     rtsv7M4_T_le_v4SPD16_eabi.lib : locale.cpp.obj (.const:.typeinfo:_ZTSNSt3__212codecvt_baseE)
                  00026b9f    00000017                                   : locale.cpp.obj (.const:.typeinfo:_ZTSNSt3__27codecvtIDiciEE)
                  00026bb6    00000017                                   : locale.cpp.obj (.const:.typeinfo:_ZTSNSt3__27codecvtIDsciEE)
                  00026bcd    00000016                                   : locale.cpp.obj (.const:.typeinfo:_ZTSNSt3__26locale5__impE)
                  00026be3    00000016                                   : locale.cpp.obj (.const:.typeinfo:_ZTSNSt3__26locale5facetE)
                  00026bf9    00000016                                   : locale.cpp.obj (.const:.typeinfo:_ZTSNSt3__27codecvtIcciEE)
                  00026c0f    00000016                                   : locale.cpp.obj (.const:.typeinfo:_ZTSNSt3__27codecvtIwciEE)
                  00026c25    00000016                                   : locale.cpp.obj (.const:.typeinfo:_ZTSNSt3__29__num_getIcEE)
                  00026c3b    00000016                                   : locale.cpp.obj (.const:.typeinfo:_ZTSNSt3__29__num_getIwEE)
                  00026c51    00000016                                   : locale.cpp.obj (.const:.typeinfo:_ZTSNSt3__29__num_putIcEE)
                  00026c67    00000016                                   : locale.cpp.obj (.const:.typeinfo:_ZTSNSt3__29__num_putIwEE)
                  00026c7d    00000015                                   : locale.cpp.obj (.const:.typeinfo:_ZTSNSt3__210__time_putE)
                  00026c92    00000015                                   : locale.cpp.obj (.const:.typeinfo:_ZTSNSt3__210ctype_baseE)
                  00026ca7    00000015                                   : locale.cpp.obj (.const:.typeinfo:_ZTSNSt3__210money_baseE)
                  00026cbc    00000015                                   : locale.cpp.obj (.const:.typeinfo:_ZTSNSt3__28messagesIcEE)
                  00026cd1    00000015                                   : locale.cpp.obj (.const:.typeinfo:_ZTSNSt3__28messagesIwEE)
                  00026ce6    00000015                                   : locale.cpp.obj (.const:.typeinfo:_ZTSNSt3__28numpunctIcEE)
                  00026cfb    00000015                                   : locale.cpp.obj (.const:.typeinfo:_ZTSNSt3__28numpunctIwEE)
                  00026d10    00000014                                   : locale.cpp.obj (.const:.typeinfo:_ZTSNSt3__27collateIcEE)
                  00026d24    00000014                                   : locale.cpp.obj (.const:.typeinfo:_ZTSNSt3__27collateIwEE)
                  00026d38    00000014                                   : locale.cpp.obj (.const:_ZTVNSt3__26locale5__impE)
                  00026d4c    00000014                                   : locale.cpp.obj (.const:_ZTVNSt3__26locale5facetE)
                  00026d60    00000014     empty_pem4f.oem4f (.const:xdc_runtime_Startup_firstFxns__A)
                  00026d74    00000014     empty_pem4f.oem4f (.const:xdc_runtime_Startup_sfxnRts__A)
                  00026d88    00000013     rtsv7M4_T_le_v4SPD16_eabi.lib : locale.cpp.obj (.const:.typeinfo:_ZTSNSt3__29time_baseE)
                  00026d9b    00000012                                   : locale.cpp.obj (.const:.typeinfo:_ZTSNSt3__25ctypeIcEE)
                  00026dad    00000012                                   : locale.cpp.obj (.const:.typeinfo:_ZTSNSt3__25ctypeIwEE)
                  00026dbf    00000012                                   : ios.cpp.obj (.const:.typeinfo:_ZTSNSt3__28ios_baseE)
                  00026dd1    00000003                                   : locale.cpp.obj (.const:.string:_ZZNKSt3__27num_putIcNS_19ostreambuf_iteratorIcNS_11char_traitsIcEEEEE6do_putES4_RNS_8ios_baseEcxEs)
                  00026dd4    00000010                                   : _scanfi.c.obj (.const:$O1$$)
                  00026de4    00000010     ArgumentArray.obj (.const:.typeinfo:_ZTS13ArgumentArray)
                  00026df4    00000010     NetReceive.obj (.const:_ZTV10NetReceive)
                  00026e04    00000010     ArgumentArray.obj (.const:_ZTV13ArgumentArray)
                  00026e14    00000010     Codec.obj (.const:_ZTV5Codec)
                  00026e24    00000010     Handler.obj (.const:_ZTV7Handler)
                  00026e34    00000010     Receive.obj (.const:_ZTV7Receive)
                  00026e44    00000010     rtsv7M4_T_le_v4SPD16_eabi.lib : typeinfo.c.obj (.const:_ZTVN10__cxxabiv117__class_type_infoE)
                  00026e54    00000010                                   : typeinfo.c.obj (.const:_ZTVN10__cxxabiv120__si_class_type_infoE)
                  00026e64    00000010                                   : typeinfo.c.obj (.const:_ZTVN10__cxxabiv121__vmi_class_type_infoE)
                  00026e74    00000010                                   : ios.cpp.obj (.const:_ZTVNSt3__28ios_baseE)
                  00026e84    00000010                                   : ios.cpp.obj (.const:_ZTVNSt3__29basic_iosIcNS_11char_traitsIcEEEE)
                  00026e94    0000000d                                   : string.cpp.obj (.const:.string:_ZZNKSt3__221__basic_string_commonILb1EE20__throw_length_errorEvEs)
                  00026ea1    0000000d                                   : string.cpp.obj (.const:.string:_ZZNKSt3__221__basic_string_commonILb1EE20__throw_out_of_rangeEvEs)
                  00026eae    0000000d     NetReceive.obj (.const:.typeinfo:_ZTS10NetReceive)
                  00026ebb    0000000d     rtsv7M4_T_le_v4SPD16_eabi.lib : stdlib_typeinfo.cpp.obj (.const:.typeinfo:_ZTSSt9type_info)
                  00026ec8    0000000c     Handler.obj (.const:$P$T14$1)
                  00026ed4    0000000c     NetReceive.obj (.const:.typeinfo:_ZTI10NetReceive)
                  00026ee0    0000000c     Can.obj (.const:.typeinfo:_ZTI3Can)
                  00026eec    0000000c     rtsv7M4_T_le_v4SPD16_eabi.lib : typeinfo.c.obj (.const:.typeinfo:_ZTIN10__cxxabiv117__class_type_infoE)
                  00026ef8    0000000c                                   : typeinfo.c.obj (.const:.typeinfo:_ZTIN10__cxxabiv120__si_class_type_infoE)
                  00026f04    0000000c                                   : typeinfo.c.obj (.const:.typeinfo:_ZTIN10__cxxabiv121__vmi_class_type_infoE)
                  00026f10    0000000c     Codec.obj (.const:.typeinfo:_ZTINSt3__215basic_stringbufIcNS_11char_traitsIcEENS_9allocatorIcEEEE)
                  00026f1c    0000000c     Codec.obj (.const:.typeinfo:_ZTINSt3__218basic_stringstreamIcNS_11char_traitsIcEENS_9allocatorIcEEEE)
                  00026f28    0000000c     rtsv7M4_T_le_v4SPD16_eabi.lib : locale.cpp.obj (.const:.typeinfo:_ZTINSt3__26locale5__impE)
                  00026f34    0000000c                                   : locale.cpp.obj (.const:.typeinfo:_ZTINSt3__26locale5facetE)
                  00026f40    0000000c                                   : locale.cpp.obj (.const:.typeinfo:_ZTINSt3__27collateIcEE)
                  00026f4c    0000000c                                   : locale.cpp.obj (.const:.typeinfo:_ZTINSt3__27collateIwEE)
                  00026f58    0000000c                                   : locale.cpp.obj (.const:.typeinfo:_ZTINSt3__28numpunctIcEE)
                  00026f64    0000000c                                   : locale.cpp.obj (.const:.typeinfo:_ZTINSt3__28numpunctIwEE)
                  00026f70    0000000c     Codec.obj (.const:.typeinfo:_ZTINSt3__29basic_iosIcNS_11char_traitsIcEEEE)
                  00026f7c    00000009     Handler.obj (.const:.typeinfo:_ZTS7Handler)
                  00026f85    00000009     NetComm.obj (.const:.typeinfo:_ZTS7NetComm)
                  00026f8e    00000009     Receive.obj (.const:.typeinfo:_ZTS7Receive)
                  00026f97    00000001     --HOLE-- [fill = 0]
                  00026f98    00000008     main.obj (.const:$P$T14$3)
                  00026fa0    00000008     main.obj (.const:$P$T16$4)
                  00026fa8    00000008     ArgumentArray.obj (.const:.typeinfo:_ZTI13ArgumentArray)
                  00026fb0    00000008     Comm.obj (.const:.typeinfo:_ZTI4Comm)
                  00026fb8    00000008     Codec.obj (.const:.typeinfo:_ZTI5Codec)
                  00026fc0    00000008     Handler.obj (.const:.typeinfo:_ZTI7Handler)
                  00026fc8    00000008     Receive.obj (.const:.typeinfo:_ZTI7Receive)
                  00026fd0    00000008     rtsv7M4_T_le_v4SPD16_eabi.lib : locale.cpp.obj (.const:.typeinfo:_ZTINSt3__210__time_putE)
                  00026fd8    00000008                                   : locale.cpp.obj (.const:.typeinfo:_ZTINSt3__210ctype_baseE)
                  00026fe0    00000008                                   : locale.cpp.obj (.const:.typeinfo:_ZTINSt3__210money_baseE)
                  00026fe8    00000008                                   : locale.cpp.obj (.const:.typeinfo:_ZTINSt3__211__money_getIcEE)
                  00026ff0    00000008                                   : locale.cpp.obj (.const:.typeinfo:_ZTINSt3__211__money_getIwEE)
                  00026ff8    00000008                                   : locale.cpp.obj (.const:.typeinfo:_ZTINSt3__211__money_putIcEE)
                  00027000    00000008                                   : locale.cpp.obj (.const:.typeinfo:_ZTINSt3__211__money_putIwEE)
                  00027008    00000008                                   : locale.cpp.obj (.const:.typeinfo:_ZTINSt3__212codecvt_baseE)
                  00027010    00000008                                   : locale.cpp.obj (.const:.typeinfo:_ZTINSt3__213messages_baseE)
                  00027018    00000008                                   : locale.cpp.obj (.const:.typeinfo:_ZTINSt3__214__num_get_baseE)
                  00027020    00000008                                   : locale.cpp.obj (.const:.typeinfo:_ZTINSt3__214__num_put_baseE)
                  00027028    00000008                                   : memory.cpp.obj (.const:.typeinfo:_ZTINSt3__214__shared_countE)
                  00027030    00000008     Codec.obj (.const:.typeinfo:_ZTINSt3__215basic_streambufIcNS_11char_traitsIcEEEE)
                  00027038    00000008     rtsv7M4_T_le_v4SPD16_eabi.lib : locale.cpp.obj (.const:.typeinfo:_ZTINSt3__220__time_get_c_storageIcEE)
                  00027040    00000008                                   : locale.cpp.obj (.const:.typeinfo:_ZTINSt3__220__time_get_c_storageIwEE)
                  00027048    00000008                                   : ios.cpp.obj (.const:.typeinfo:_ZTINSt3__28ios_baseE)
                  00027050    00000008                                   : locale.cpp.obj (.const:.typeinfo:_ZTINSt3__29time_baseE)
                  00027058    00000008                                   : stdlib_typeinfo.cpp.obj (.const:.typeinfo:_ZTISt9type_info)
                  00027060    00000008     empty_pem4f.oem4f (.const:ti_sysbios_family_arm_m3_Hwi_excHookFuncs__A)
                  00027068    00000008     empty_pem4f.oem4f (.const:ti_sysbios_knl_Idle_funcList__A)
                  00027070    00000008     empty_pem4f.oem4f (.const:ti_sysbios_knl_Idle_funcList__C)
                  00027078    00000008     empty_pem4f.oem4f (.const:xdc_runtime_Startup_firstFxns__C)
                  00027080    00000008     empty_pem4f.oem4f (.const:xdc_runtime_Startup_lastFxns__C)
                  00027088    00000007     rtsv7M4_T_le_v4SPD16_eabi.lib : vector.cpp.obj (.const:.string:_ZZNKSt3__220__vector_base_commonILb1EE20__throw_length_errorEvEs)
                  0002708f    00000007     Codec.obj (.const:.typeinfo:_ZTS5Codec)
                  00027096    00000006     rtsv7M4_T_le_v4SPD16_eabi.lib : locale.cpp.obj (.const:.string:_ZZNKSt3__29money_putIcNS_19ostreambuf_iteratorIcNS_11char_traitsIcEEEEE6do_putES4_bRNS_8ios_baseEceEs)
                  0002709c    00000006                                   : locale.cpp.obj (.const:.string:_ZZNKSt3__29money_putIwNS_19ostreambuf_iteratorIwNS_11char_traitsIwEEEEE6do_putES4_bRNS_8ios_baseEweEs)
                  000270a2    00000006     Comm.obj (.const:.typeinfo:_ZTS4Comm)
                  000270a8    00000005     Can.obj (.const:.typeinfo:_ZTS3Can)
                  000270ad    00000004     rtsv7M4_T_le_v4SPD16_eabi.lib : locale.cpp.obj (.const:.string:_ZZNKSt3__29money_getIcNS_19istreambuf_iteratorIcNS_11char_traitsIcEEEEE6do_getES4_S4_bRNS_8ios_baseERjReEs_0)
                  000270b1    00000004                                   : locale.cpp.obj (.const:.string:_ZZNKSt3__29money_getIwNS_19istreambuf_iteratorIwNS_11char_traitsIwEEEEE6do_getES4_S4_bRNS_8ios_baseERjReEs_0)
                  000270b5    00000003                                   : locale.cpp.obj (.const:.string:_ZZNKSt3__27num_putIcNS_19ostreambuf_iteratorIcNS_11char_traitsIcEEEEE6do_putES4_RNS_8ios_baseEcyEs)
                  000270b8    00000004     empty_pem4f.oem4f (.const:ti_catalog_arm_cortexm4_tiva_ce_Boot_A_mustUseEnhancedClockMode__C)
                  000270bc    00000004     empty_pem4f.oem4f (.const:ti_catalog_arm_cortexm4_tiva_ce_Boot_Module__diagsEnabled__C)
                  000270c0    00000004     empty_pem4f.oem4f (.const:ti_catalog_arm_cortexm4_tiva_ce_Boot_Module__diagsIncluded__C)
                  000270c4    00000004     empty_pem4f.oem4f (.const:ti_catalog_arm_cortexm4_tiva_ce_Boot_Module__diagsMask__C)
                  000270c8    00000004     empty_pem4f.oem4f (.const:ti_sysbios_BIOS_installedErrorHook__C)
                  000270cc    00000004     empty_pem4f.oem4f (.const:ti_sysbios_family_arm_lm4_Timer_enableFunc__C)
                  000270d0    00000004     empty_pem4f.oem4f (.const:ti_sysbios_family_arm_lm4_Timer_numTimerDevices__C)
                  000270d4    00000004     empty_pem4f.oem4f (.const:ti_sysbios_family_arm_lm4_Timer_startupNeeded__C)
                  000270d8    00000004     empty_pem4f.oem4f (.const:ti_sysbios_family_arm_m3_Hwi_E_NMI__C)
                  000270dc    00000004     empty_pem4f.oem4f (.const:ti_sysbios_family_arm_m3_Hwi_E_busFault__C)
                  000270e0    00000004     empty_pem4f.oem4f (.const:ti_sysbios_family_arm_m3_Hwi_E_debugMon__C)
                  000270e4    00000004     empty_pem4f.oem4f (.const:ti_sysbios_family_arm_m3_Hwi_E_hardFault__C)
                  000270e8    00000004     empty_pem4f.oem4f (.const:ti_sysbios_family_arm_m3_Hwi_E_memFault__C)
                  000270ec    00000004     empty_pem4f.oem4f (.const:ti_sysbios_family_arm_m3_Hwi_E_noIsr__C)
                  000270f0    00000004     empty_pem4f.oem4f (.const:ti_sysbios_family_arm_m3_Hwi_E_reserved__C)
                  000270f4    00000004     empty_pem4f.oem4f (.const:ti_sysbios_family_arm_m3_Hwi_E_svCall__C)
                  000270f8    00000004     empty_pem4f.oem4f (.const:ti_sysbios_family_arm_m3_Hwi_E_usageFault__C)
                  000270fc    00000004     empty_pem4f.oem4f (.const:ti_sysbios_family_arm_m3_Hwi_NUM_INTERRUPTS__C)
                  00027100    00000004     empty_pem4f.oem4f (.const:ti_sysbios_family_arm_m3_Hwi_Object__count__C)
                  00027104    00000004     empty_pem4f.oem4f (.const:ti_sysbios_family_arm_m3_Hwi_Object__table__C)
                  00027108    00000004     empty_pem4f.oem4f (.const:ti_sysbios_family_arm_m3_Hwi_ccr__C)
                  0002710c    00000004     empty_pem4f.oem4f (.const:ti_sysbios_family_arm_m3_Hwi_excHandlerFunc__C)
                  00027110    00000004     empty_pem4f.oem4f (.const:ti_sysbios_family_arm_m3_Hwi_excHookFuncs__C)
                  00027114    00000004     empty_pem4f.oem4f (.const:ti_sysbios_family_arm_m3_Hwi_nullIsrFunc__C)
                  00027118    00000004     empty_pem4f.oem4f (.const:ti_sysbios_family_arm_m3_Hwi_priGroup__C)
                  0002711c    00000004     empty_pem4f.oem4f (.const:ti_sysbios_family_arm_m3_TaskSupport_stackAlignment__C)
                  00027120    00000004     empty_pem4f.oem4f (.const:ti_sysbios_gates_GateMutex_A_badContext__C)
                  00027124    00000004     empty_pem4f.oem4f (.const:ti_sysbios_gates_GateMutex_Instance_State_sem__O)
                  00027128    00000004     empty_pem4f.oem4f (.const:ti_sysbios_gates_GateMutex_Module__diagsEnabled__C)
                  0002712c    00000004     empty_pem4f.oem4f (.const:ti_sysbios_gates_GateMutex_Module__diagsIncluded__C)
                  00027130    00000004     empty_pem4f.oem4f (.const:ti_sysbios_gates_GateMutex_Module__diagsMask__C)
                  00027134    00000004     empty_pem4f.oem4f (.const:ti_sysbios_hal_Hwi_E_stackOverflow__C)
                  00027138    00000004     empty_pem4f.oem4f (.const:ti_sysbios_heaps_HeapMem_A_align__C)
                  0002713c    00000004     empty_pem4f.oem4f (.const:ti_sysbios_heaps_HeapMem_A_heapSize__C)
                  00027140    00000004     empty_pem4f.oem4f (.const:ti_sysbios_heaps_HeapMem_A_invalidFree__C)
                  00027144    00000004     empty_pem4f.oem4f (.const:ti_sysbios_heaps_HeapMem_A_zeroBlock__C)
                  00027148    00000004     empty_pem4f.oem4f (.const:ti_sysbios_heaps_HeapMem_E_memory__C)
                  0002714c    00000004     empty_pem4f.oem4f (.const:ti_sysbios_heaps_HeapMem_Module__diagsEnabled__C)
                  00027150    00000004     empty_pem4f.oem4f (.const:ti_sysbios_heaps_HeapMem_Module__diagsIncluded__C)
                  00027154    00000004     empty_pem4f.oem4f (.const:ti_sysbios_heaps_HeapMem_Module__diagsMask__C)
                  00027158    00000004     empty_pem4f.oem4f (.const:ti_sysbios_heaps_HeapMem_Module__gateObj__C)
                  0002715c    00000004     empty_pem4f.oem4f (.const:ti_sysbios_heaps_HeapMem_Object__count__C)
                  00027160    00000004     empty_pem4f.oem4f (.const:ti_sysbios_heaps_HeapMem_Object__table__C)
                  00027164    00000004     empty_pem4f.oem4f (.const:ti_sysbios_heaps_HeapMem_reqAlign__C)
                  00027168    00000004     empty_pem4f.oem4f (.const:ti_sysbios_knl_Clock_A_badThreadType__C)
                  0002716c    00000004     empty_pem4f.oem4f (.const:ti_sysbios_knl_Clock_Module_State_clockQ__O)
                  00027170    00000004     empty_pem4f.oem4f (.const:ti_sysbios_knl_Clock_Module__diagsEnabled__C)
                  00027174    00000004     empty_pem4f.oem4f (.const:ti_sysbios_knl_Clock_Module__diagsIncluded__C)
                  00027178    00000004     empty_pem4f.oem4f (.const:ti_sysbios_knl_Clock_Module__diagsMask__C)
                  0002717c    00000004     empty_pem4f.oem4f (.const:ti_sysbios_knl_Semaphore_A_badContext__C)
                  00027180    00000004     empty_pem4f.oem4f (.const:ti_sysbios_knl_Semaphore_A_noEvents__C)
                  00027184    00000004     empty_pem4f.oem4f (.const:ti_sysbios_knl_Semaphore_A_overflow__C)
                  00027188    00000004     empty_pem4f.oem4f (.const:ti_sysbios_knl_Semaphore_A_pendTaskDisabled__C)
                  0002718c    00000004     empty_pem4f.oem4f (.const:ti_sysbios_knl_Semaphore_Instance_State_pendQ__O)
                  00027190    00000004     empty_pem4f.oem4f (.const:ti_sysbios_knl_Semaphore_Module__diagsEnabled__C)
                  00027194    00000004     empty_pem4f.oem4f (.const:ti_sysbios_knl_Semaphore_Module__diagsIncluded__C)
                  00027198    00000004     empty_pem4f.oem4f (.const:ti_sysbios_knl_Semaphore_Module__diagsMask__C)
                  0002719c    00000004     empty_pem4f.oem4f (.const:ti_sysbios_knl_Swi_Object__count__C)
                  000271a0    00000004     empty_pem4f.oem4f (.const:ti_sysbios_knl_Swi_Object__table__C)
                  000271a4    00000004     empty_pem4f.oem4f (.const:ti_sysbios_knl_Task_A_badPriority__C)
                  000271a8    00000004     empty_pem4f.oem4f (.const:ti_sysbios_knl_Task_A_badTaskState__C)
                  000271ac    00000004     empty_pem4f.oem4f (.const:ti_sysbios_knl_Task_A_badThreadType__C)
                  000271b0    00000004     empty_pem4f.oem4f (.const:ti_sysbios_knl_Task_A_noPendElem__C)
                  000271b4    00000004     empty_pem4f.oem4f (.const:ti_sysbios_knl_Task_E_spOutOfBounds__C)
                  000271b8    00000004     empty_pem4f.oem4f (.const:ti_sysbios_knl_Task_E_stackOverflow__C)
                  000271bc    00000004     empty_pem4f.oem4f (.const:ti_sysbios_knl_Task_Module_State_inactiveQ__O)
                  000271c0    00000004     empty_pem4f.oem4f (.const:ti_sysbios_knl_Task_Module__diagsEnabled__C)
                  000271c4    00000004     empty_pem4f.oem4f (.const:ti_sysbios_knl_Task_Module__diagsIncluded__C)
                  000271c8    00000004     empty_pem4f.oem4f (.const:ti_sysbios_knl_Task_Module__diagsMask__C)
                  000271cc    00000004     empty_pem4f.oem4f (.const:ti_sysbios_knl_Task_Object__count__C)
                  000271d0    00000004     empty_pem4f.oem4f (.const:ti_sysbios_knl_Task_Object__table__C)
                  000271d4    00000004     empty_pem4f.oem4f (.const:ti_sysbios_knl_Task_allBlockedFunc__C)
                  000271d8    00000004     empty_pem4f.oem4f (.const:ti_sysbios_knl_Task_defaultStackHeap__C)
                  000271dc    00000004     empty_pem4f.oem4f (.const:ti_sysbios_knl_Task_defaultStackSize__C)
                  000271e0    00000004     empty_pem4f.oem4f (.const:ti_sysbios_knl_Task_numConstructedTasks__C)
                  000271e4    00000004     empty_pem4f.oem4f (.const:ti_sysbios_utils_Load_Module__diagsEnabled__C)
                  000271e8    00000004     empty_pem4f.oem4f (.const:ti_sysbios_utils_Load_Module__diagsIncluded__C)
                  000271ec    00000004     empty_pem4f.oem4f (.const:ti_sysbios_utils_Load_Module__diagsMask__C)
                  000271f0    00000004     empty_pem4f.oem4f (.const:ti_sysbios_utils_Load_postUpdate__C)
                  000271f4    00000004     empty_pem4f.oem4f (.const:ti_sysbios_utils_Load_windowInMs__C)
                  000271f8    00000004     empty_pem4f.oem4f (.const:ti_uia_loggers_LoggerStopMode_Module__diagsEnabled__C)
                  000271fc    00000004     empty_pem4f.oem4f (.const:ti_uia_loggers_LoggerStopMode_Module__diagsIncluded__C)
                  00027200    00000004     empty_pem4f.oem4f (.const:ti_uia_loggers_LoggerStopMode_Module__diagsMask__C)
                  00027204    00000004     empty_pem4f.oem4f (.const:ti_uia_loggers_LoggerStopMode_Object__count__C)
                  00027208    00000004     empty_pem4f.oem4f (.const:ti_uia_loggers_LoggerStopMode_Object__table__C)
                  0002720c    00000004     empty_pem4f.oem4f (.const:ti_uia_runtime_ILoggerSnapshot_Interface__BASE__C)
                  00027210    00000004     empty_pem4f.oem4f (.const:ti_uia_runtime_IUIATransfer_Interface__BASE__C)
                  00027214    00000004     empty_pem4f.oem4f (.const:xdc_runtime_Assert_E_assertFailed__C)
                  00027218    00000004     empty_pem4f.oem4f (.const:xdc_runtime_Core_A_initializedParams__C)
                  0002721c    00000004     empty_pem4f.oem4f (.const:xdc_runtime_Core_Module__diagsEnabled__C)
                  00027220    00000004     empty_pem4f.oem4f (.const:xdc_runtime_Core_Module__diagsIncluded__C)
                  00027224    00000004     empty_pem4f.oem4f (.const:xdc_runtime_Core_Module__diagsMask__C)
                  00027228    00000004     empty_pem4f.oem4f (.const:xdc_runtime_Error_E_memory__C)
                  0002722c    00000004     empty_pem4f.oem4f (.const:xdc_runtime_Error_Module__diagsEnabled__C)
                  00027230    00000004     empty_pem4f.oem4f (.const:xdc_runtime_Error_Module__diagsIncluded__C)
                  00027234    00000004     empty_pem4f.oem4f (.const:xdc_runtime_Error_Module__diagsMask__C)
                  00027238    00000004     empty_pem4f.oem4f (.const:xdc_runtime_Error_Module__loggerFxn8__C)
                  0002723c    00000004     empty_pem4f.oem4f (.const:xdc_runtime_Error_Module__loggerObj__C)
                  00027240    00000004     empty_pem4f.oem4f (.const:xdc_runtime_Error_policyFxn__C)
                  00027244    00000004     empty_pem4f.oem4f (.const:xdc_runtime_Error_raiseHook__C)
                  00027248    00000004     empty_pem4f.oem4f (.const:xdc_runtime_IFilterLogger_Interface__BASE__C)
                  0002724c    00000004     empty_pem4f.oem4f (.const:xdc_runtime_IGateProvider_Interface__BASE__C)
                  00027250    00000004     empty_pem4f.oem4f (.const:xdc_runtime_IHeap_Interface__BASE__C)
                  00027254    00000004     empty_pem4f.oem4f (.const:xdc_runtime_ILogger_Interface__BASE__C)
                  00027258    00000004     empty_pem4f.oem4f (.const:xdc_runtime_IModule_Interface__BASE__C)
                  0002725c    00000004     empty_pem4f.oem4f (.const:xdc_runtime_Log_L_error__C)
                  00027260    00000004     empty_pem4f.oem4f (.const:xdc_runtime_Main_Module__diagsEnabled__C)
                  00027264    00000004     empty_pem4f.oem4f (.const:xdc_runtime_Main_Module__diagsIncluded__C)
                  00027268    00000004     empty_pem4f.oem4f (.const:xdc_runtime_Main_Module__diagsMask__C)
                  0002726c    00000004     empty_pem4f.oem4f (.const:xdc_runtime_Memory_defaultHeapInstance__C)
                  00027270    00000004     empty_pem4f.oem4f (.const:xdc_runtime_Startup_execImpl__C)
                  00027274    00000004     empty_pem4f.oem4f (.const:xdc_runtime_Startup_lastFxns__A)
                  00027278    00000004     empty_pem4f.oem4f (.const:xdc_runtime_Startup_maxPasses__C)
                  0002727c    00000004     empty_pem4f.oem4f (.const:xdc_runtime_Startup_sfxnRts__C)
                  00027280    00000004     empty_pem4f.oem4f (.const:xdc_runtime_Startup_sfxnTab__C)
                  00027284    00000004     empty_pem4f.oem4f (.const:xdc_runtime_Startup_startModsFxn__C)
                  00027288    00000004     empty_pem4f.oem4f (.const:xdc_runtime_SysMin_bufSize__C)
                  0002728c    00000004     empty_pem4f.oem4f (.const:xdc_runtime_SysMin_outputFunc__C)
                  00027290    00000004     empty_pem4f.oem4f (.const:xdc_runtime_System_Module__gateObj__C)
                  00027294    00000004     empty_pem4f.oem4f (.const:xdc_runtime_System_abortFxn__C)
                  00027298    00000004     empty_pem4f.oem4f (.const:xdc_runtime_System_exitFxn__C)
                  0002729c    00000004     empty_pem4f.oem4f (.const:xdc_runtime_System_extendFxn__C)
                  000272a0    00000004     empty_pem4f.oem4f (.const:xdc_runtime_System_maxAtexitHandlers__C)
                  000272a4    00000004     empty_pem4f.oem4f (.const:xdc_runtime_Text_charTab__C)
                  000272a8    00000004     empty_pem4f.oem4f (.const:xdc_runtime_Text_nameEmpty__C)
                  000272ac    00000004     empty_pem4f.oem4f (.const:xdc_runtime_Text_nameStatic__C)
                  000272b0    00000004     empty_pem4f.oem4f (.const:xdc_runtime_Text_nameUnknown__C)
                  000272b4    00000004     empty_pem4f.oem4f (.const:xdc_runtime_Text_nodeTab__C)
                  000272b8    00000004     empty_pem4f.oem4f (.const:xdc_runtime_Text_visitRopeFxn__C)
                  000272bc    00000003     rtsv7M4_T_le_v4SPD16_eabi.lib : locale.cpp.obj (.const:.string:_ZZNKSt3__27num_putIwNS_19ostreambuf_iteratorIwNS_11char_traitsIwEEEEE6do_putES4_RNS_8ios_baseEwxEs)
                  000272bf    00000003                                   : locale.cpp.obj (.const:.string:_ZZNKSt3__27num_putIwNS_19ostreambuf_iteratorIwNS_11char_traitsIwEEEEE6do_putES4_RNS_8ios_baseEwyEs)
                  000272c2    00000002                                   : locale.cpp.obj (.const:.string:_ZZNKSt3__27num_putIwNS_19ostreambuf_iteratorIwNS_11char_traitsIwEEEEE6do_putES4_RNS_8ios_baseEwlEs)
                  000272c4    00000002                                   : locale.cpp.obj (.const:.string:_ZZNKSt3__27num_putIwNS_19ostreambuf_iteratorIwNS_11char_traitsIwEEEEE6do_putES4_RNS_8ios_baseEwmEs)
                  000272c6    00000002     empty_pem4f.oem4f (.const:ti_catalog_arm_cortexm4_tiva_ce_Boot_Module__id__C)
                  000272c8    00000002     empty_pem4f.oem4f (.const:ti_sysbios_family_arm_lm4_TimestampProvider_useClockTimer__C)
                  000272ca    00000002     empty_pem4f.oem4f (.const:ti_sysbios_family_arm_m3_Hwi_Module__id__C)
                  000272cc    00000002     empty_pem4f.oem4f (.const:ti_sysbios_gates_GateMutex_Module__id__C)
                  000272ce    00000002     empty_pem4f.oem4f (.const:ti_sysbios_hal_Hwi_Module__id__C)
                  000272d0    00000002     empty_pem4f.oem4f (.const:ti_sysbios_heaps_HeapMem_Module__id__C)
                  000272d2    00000002     empty_pem4f.oem4f (.const:ti_sysbios_knl_Clock_Module__id__C)
                  000272d4    00000002     empty_pem4f.oem4f (.const:ti_sysbios_knl_Semaphore_Module__id__C)
                  000272d6    00000002     empty_pem4f.oem4f (.const:ti_sysbios_knl_Task_Module__id__C)
                  000272d8    00000002     empty_pem4f.oem4f (.const:ti_sysbios_utils_Load_Module__id__C)
                  000272da    00000002     empty_pem4f.oem4f (.const:ti_sysbios_utils_Load_updateInIdle__C)
                  000272dc    00000002     empty_pem4f.oem4f (.const:ti_uia_loggers_LoggerStopMode_Module__id__C)
                  000272de    00000002     empty_pem4f.oem4f (.const:ti_uia_loggers_LoggerStopMode_isTimestampEnabled__C)
                  000272e0    00000002     empty_pem4f.oem4f (.const:xdc_runtime_Core_Module__id__C)
                  000272e2    00000002     empty_pem4f.oem4f (.const:xdc_runtime_Error_Module__loggerDefined__C)
                  000272e4    00000002     empty_pem4f.oem4f (.const:xdc_runtime_Error_maxDepth__C)
                  000272e6    00000002     empty_pem4f.oem4f (.const:xdc_runtime_Main_Module__id__C)
                  000272e8    00000002     empty_pem4f.oem4f (.const:xdc_runtime_Memory_Module__id__C)
                  000272ea    00000002     empty_pem4f.oem4f (.const:xdc_runtime_SysMin_flushAtExit__C)
                  000272ec    00000002     empty_pem4f.oem4f (.const:xdc_runtime_Text_charCnt__C)
                  000272ee    00000002     empty_pem4f.oem4f (.const:xdc_runtime_Text_isLoaded__C)
                  000272f0    00000002     empty_pem4f.oem4f (.const:xdc_runtime_Text_registryModsLastId__C)
                  000272f2    00000002     empty_pem4f.oem4f (.const:xdc_runtime_Text_unnamedModsLastId__C)

.cinit     0    000272f8    000002e8     
                  000272f8    000002a2     (.cinit..data.load) [load image, compression = lzss]
                  0002759a    00000002     --HOLE-- [fill = 0]
                  0002759c    0000000c     (__TI_handler_table)
                  000275a8    00000008     (.cinit..bss.load) [load image, compression = zero_init]
                  000275b0    00000008     (.cinit..vecs.load) [load image, compression = zero_init]
                  000275b8    00000008     (.cinit..vtable.load) [load image, compression = zero_init]
                  000275c0    00000020     (__TI_cinit_table)

.init_array 
*          0    0000003c    00000004     
                  0000003c    00000004     main.obj (.init_array)

.bss       0    20000380    00005978     UNINITIALIZED
                  20000380    00001000     Can.obj (.bss:g_isotpRecvBuf)
                  20001380    00001000     Can.obj (.bss:g_isotpSendBuf)
                  20002380    00000bf0     (.common:task0Stack)
                  20002f70    00000bf0     (.common:task1Stack)
                  20003b60    00000800     (.common:ti_sysbios_heaps_HeapMem_Instance_State_0_buf__A)
                  20004360    00000470     main.obj (.bss:can0)
                  200047d0    0000001c     main.obj (.bss:netReceive)
                  200047ec    00000004     main.obj (.bss:codec)
                  200047f0    00000010     rtsv7M4_T_le_v4SPD16_eabi.lib : locale.cpp.obj (.bss:_ZZNSt3__234_GLOBAL__N__10_locale_cpp_a71832034makeINS_5ctypeIcEEDnbjEERT_T0_T1_T2_E3buf)
                  20004800    00000400     (.common:ti_uia_loggers_LoggerStopMode_Instance_State_1_packetArray__A)
                  20004c00    00000400     (.common:ti_uia_loggers_LoggerStopMode_Instance_State_2_packetArray__A)
                  20005000    00000360     (.common:ti_sysbios_family_arm_m3_Hwi_dispatchTable)
                  20005360    00000200     empty_pem4f.oem4f (.bss:taskStackSection)
                  20005560    00000018     rtsv7M4_T_le_v4SPD16_eabi.lib : locale.cpp.obj (.bss:_ZZNSt3__234_GLOBAL__N__10_locale_cpp_a71832034makeINS_8numpunctIcEEjEERT_T0_E3buf)
                  20005578    00000008                                   : locale.cpp.obj (.bss:_ZZNSt3__234_GLOBAL__N__10_locale_cpp_a71832034makeINS_10moneypunctIcLb0EEEjEERT_T0_E3buf)
                  20005580    00000200     (.common:ti_uia_loggers_LoggerStopMode_Instance_State_0_packetArray__A)
                  20005780    00000120                                   : trgmsg.c.obj (.bss:_CIOBUF_)
                  200058a0    000000a0                                   : locale.cpp.obj (.bss:_ZZNSt3__234_GLOBAL__N__10_locale_cpp_a71832034makeINS_6locale5__impEjEERT_T0_E3buf)
                  20005940    000000a0     (.common:__TI_tmpnams)
                  200059e0    00000080     (.common:xdc_runtime_SysMin_Module_State_0_outbuf__A)
                  20005a60    00000050     (.common:task0Struct)
                  20005ab0    00000050     (.common:task1Struct)
                  20005b00    00000040     Can.obj (.bss:g_link)
                  20005b40    00000018     rtsv7M4_T_le_v4SPD16_eabi.lib : locale.cpp.obj (.bss:_ZZNSt3__234_GLOBAL__N__10_locale_cpp_a71832034makeINS_8numpunctIwEEjEERT_T0_E3buf)
                  20005b58    00000010                                   : locale.cpp.obj (.bss:_ZZNSt3__234_GLOBAL__N__10_locale_cpp_a71832034makeINS_7codecvtIwciEEjEERT_T0_E3buf)
                  20005b68    00000010                                   : locale.cpp.obj (.bss:_ZZNSt3__234_GLOBAL__N__10_locale_cpp_a71832034makeINS_8time_getIcNS_19istreambuf_iteratorIcNS_11char_traitsIcEEEEEEjEERT_T0_E3buf)
                  20005b78    00000008                                   : locale.cpp.obj (.bss:_ZZNSt3__234_GLOBAL__N__10_locale_cpp_a71832034makeINS_10moneypunctIcLb1EEEjEERT_T0_E3buf)
                  20005b80    00000030     (.common:ti_uia_loggers_LoggerStopMode_Instance_State_0_hdr__A)
                  20005bb0    00000010                                   : locale.cpp.obj (.bss:_ZZNSt3__234_GLOBAL__N__10_locale_cpp_a71832034makeINS_8time_getIwNS_19istreambuf_iteratorIwNS_11char_traitsIwEEEEEEjEERT_T0_E3buf)
                  20005bc0    00000010                                   : locale.cpp.obj (.bss:_ZZNSt3__234_GLOBAL__N__10_locale_cpp_a71832034makeINS_8time_putIcNS_19ostreambuf_iteratorIcNS_11char_traitsIcEEEEEEjEERT_T0_E3buf)
                  20005bd0    00000010                                   : locale.cpp.obj (.bss:_ZZNSt3__234_GLOBAL__N__10_locale_cpp_a71832034makeINS_8time_putIwNS_19ostreambuf_iteratorIwNS_11char_traitsIwEEEEEEjEERT_T0_E3buf)
                  20005be0    00000010     main.obj (.bss:handler)
                  20005bf0    00000008     rtsv7M4_T_le_v4SPD16_eabi.lib : locale.cpp.obj (.bss:_ZZNSt3__234_GLOBAL__N__10_locale_cpp_a71832034makeINS_10moneypunctIwLb0EEEjEERT_T0_E3buf)
                  20005bf8    00000008                                   : locale.cpp.obj (.bss:_ZZNSt3__234_GLOBAL__N__10_locale_cpp_a71832034makeINS_10moneypunctIwLb1EEEjEERT_T0_E3buf)
                  20005c00    00000030     (.common:ti_uia_loggers_LoggerStopMode_Instance_State_1_hdr__A)
                  20005c30    00000008                                   : locale.cpp.obj (.bss:_ZZNSt3__234_GLOBAL__N__10_locale_cpp_a71832034makeINS_5ctypeIwEEjEERT_T0_E3buf)
                  20005c38    00000008                                   : locale.cpp.obj (.bss:_ZZNSt3__234_GLOBAL__N__10_locale_cpp_a71832034makeINS_7codecvtIDiciEEjEERT_T0_E3buf)
                  20005c40    00000008                                   : locale.cpp.obj (.bss:_ZZNSt3__234_GLOBAL__N__10_locale_cpp_a71832034makeINS_7codecvtIDsciEEjEERT_T0_E3buf)
                  20005c48    00000008                                   : locale.cpp.obj (.bss:_ZZNSt3__234_GLOBAL__N__10_locale_cpp_a71832034makeINS_7codecvtIcciEEjEERT_T0_E3buf)
                  20005c50    00000008                                   : locale.cpp.obj (.bss:_ZZNSt3__234_GLOBAL__N__10_locale_cpp_a71832034makeINS_7collateIcEEjEERT_T0_E3buf)
                  20005c58    00000008                                   : locale.cpp.obj (.bss:_ZZNSt3__234_GLOBAL__N__10_locale_cpp_a71832034makeINS_7collateIwEEjEERT_T0_E3buf)
                  20005c60    00000008                                   : locale.cpp.obj (.bss:_ZZNSt3__234_GLOBAL__N__10_locale_cpp_a71832034makeINS_7num_getIcNS_19istreambuf_iteratorIcNS_11char_traitsIcEEEEEEjEERT_T0_E3buf)
                  20005c68    00000008                                   : locale.cpp.obj (.bss:_ZZNSt3__234_GLOBAL__N__10_locale_cpp_a71832034makeINS_7num_getIwNS_19istreambuf_iteratorIwNS_11char_traitsIwEEEEEEjEERT_T0_E3buf)
                  20005c70    00000008                                   : locale.cpp.obj (.bss:_ZZNSt3__234_GLOBAL__N__10_locale_cpp_a71832034makeINS_7num_putIcNS_19ostreambuf_iteratorIcNS_11char_traitsIcEEEEEEjEERT_T0_E3buf)
                  20005c78    00000008                                   : locale.cpp.obj (.bss:_ZZNSt3__234_GLOBAL__N__10_locale_cpp_a71832034makeINS_7num_putIwNS_19ostreambuf_iteratorIwNS_11char_traitsIwEEEEEEjEERT_T0_E3buf)
                  20005c80    00000030     (.common:ti_uia_loggers_LoggerStopMode_Instance_State_2_hdr__A)
                  20005cb0    00000008                                   : locale.cpp.obj (.bss:_ZZNSt3__234_GLOBAL__N__10_locale_cpp_a71832034makeINS_8messagesIcEEjEERT_T0_E3buf)
                  20005cb8    00000008                                   : locale.cpp.obj (.bss:_ZZNSt3__234_GLOBAL__N__10_locale_cpp_a71832034makeINS_8messagesIwEEjEERT_T0_E3buf)
                  20005cc0    00000008                                   : locale.cpp.obj (.bss:_ZZNSt3__234_GLOBAL__N__10_locale_cpp_a71832034makeINS_9money_getIcNS_19istreambuf_iteratorIcNS_11char_traitsIcEEEEEEjEERT_T0_E3buf)
                  20005cc8    00000008                                   : locale.cpp.obj (.bss:_ZZNSt3__234_GLOBAL__N__10_locale_cpp_a71832034makeINS_9money_getIwNS_19istreambuf_iteratorIwNS_11char_traitsIwEEEEEEjEERT_T0_E3buf)
                  20005cd0    00000008                                   : locale.cpp.obj (.bss:_ZZNSt3__234_GLOBAL__N__10_locale_cpp_a71832034makeINS_9money_putIcNS_19ostreambuf_iteratorIcNS_11char_traitsIcEEEEEEjEERT_T0_E3buf)
                  20005cd8    00000008                                   : locale.cpp.obj (.bss:_ZZNSt3__234_GLOBAL__N__10_locale_cpp_a71832034makeINS_9money_putIwNS_19ostreambuf_iteratorIwNS_11char_traitsIwEEEEEEjEERT_T0_E3buf)
                  20005ce0    00000008     (.common:parmbuf)
                  20005ce8    00000005     main.obj (.bss)
                  20005ced    00000001     Can.obj (.bss:$P$T192$1)
                  20005cee    00000001     Can.obj (.bss:_ZN28_INTERNAL_7_Can_cpp_faf18f4fSt3__219piecewise_constructE)
                  20005cef    00000001     --HOLE--
                  20005cf0    00000004     rtsv7M4_T_le_v4SPD16_eabi.lib : new.cpp.obj (.bss)
                  20005cf4    00000004     (.common:__dso_handle)

.data      0    20005cf8    00000f4a     UNINITIALIZED
                  20005cf8    000006fc     rtsv7M4_T_le_v4SPD16_eabi.lib : locale.cpp.obj (.data:$O1$$)
                  200063f4    000000f0                                   : defs.c.obj (.data:_ftable)
                  200064e4    0000009c     empty_pem4f.oem4f (.data:ti_uia_loggers_LoggerStopMode_Object__table__V)
                  20006580    00000098     empty_pem4f.oem4f (.data:ti_sysbios_utils_Load_Module__state__V)
                  20006618    00000080     empty_pem4f.oem4f (.data:ti_sysbios_family_arm_lm4_Timer_Object__table__V)
                  20006698    00000080     empty_pem4f.oem4f (.data:ti_sysbios_knl_Swi_Module_State_0_readyQ__A)
                  20006718    00000080     empty_pem4f.oem4f (.data:ti_sysbios_knl_Task_Module_State_0_readyQ__A)
                  20006798    00000078     rtsv7M4_T_le_v4SPD16_eabi.lib : host_device.c.obj (.data:_device)
                  20006810    00000050                                   : host_device.c.obj (.data:_stream)
                  20006860    0000004c     empty_pem4f.oem4f (.data:ti_sysbios_knl_Task_Object__table__V)
                  200068ac    00000044     empty_pem4f.oem4f (.data:ti_sysbios_knl_Task_Module__state__V)
                  200068f0    00000038     empty_pem4f.oem4f (.data:ti_sysbios_gates_GateMutex_Object__table__V)
                  20006928    00000034     empty_pem4f.oem4f (.data:ti_sysbios_family_arm_m3_Hwi_Module__state__V)
                  2000695c    00000030     empty_pem4f.oem4f (.data:ti_sysbios_family_arm_lm4_Timer_Module_State_0_device__A)
                  2000698c    00000030     empty_pem4f.oem4f (.data:ti_sysbios_family_arm_m3_Hwi_Object__table__V)
                  200069bc    00000030     empty_pem4f.oem4f (.data:ti_sysbios_knl_Swi_Object__table__V)
                  200069ec    0000002c     empty_pem4f.oem4f (.data:ti_sysbios_knl_Clock_Module__state__V)
                  20006a18    00000024     empty_pem4f.oem4f (.data:ti_sysbios_BIOS_Module__state__V)
                  20006a3c    0000001c     empty_pem4f.oem4f (.data:ti_sysbios_knl_Swi_Module__state__V)
                  20006a58    00000018     Can.obj (.data)
                  20006a70    00000018     empty_pem4f.oem4f (.data:ti_sysbios_family_arm_lm4_Timer_Module_State_0_handles__A)
                  20006a88    00000018     empty_pem4f.oem4f (.data:ti_sysbios_heaps_HeapMem_Object__table__V)
                  20006aa0    00000010     rtsv7M4_T_le_v4SPD16_eabi.lib : tmzone.c.obj (.data:_tz)
                  20006ab0    00000010                                   : defs.c.obj (.data)
                  20006ac0    0000000c                                   : exit.c.obj (.data:$O1$$)
                  20006acc    0000000c     empty_pem4f.oem4f (.data:ti_sysbios_family_arm_lm4_Timer_Module__state__V)
                  20006ad8    0000000c     empty_pem4f.oem4f (.data:ti_sysbios_knl_Task_Module__root__V)
                  20006ae4    0000000c     empty_pem4f.oem4f (.data:ti_uia_runtime_QueueDescriptor_Module__state__V)
                  20006af0    0000000c     empty_pem4f.oem4f (.data:xdc_runtime_SysMin_Module__state__V)
                  20006afc    00000008     rtsv7M4_T_le_v4SPD16_eabi.lib : _lock.c.obj (.data:$O1$$)
                  20006b04    00000008                                   : locale.cpp.obj (.data:_ZNSt3__210moneypunctIcLb0EE2idE)
                  20006b0c    00000008                                   : locale.cpp.obj (.data:_ZNSt3__210moneypunctIcLb1EE2idE)
                  20006b14    00000008                                   : locale.cpp.obj (.data:_ZNSt3__210moneypunctIwLb0EE2idE)
                  20006b1c    00000008                                   : locale.cpp.obj (.data:_ZNSt3__210moneypunctIwLb1EE2idE)
                  20006b24    00000008                                   : locale.cpp.obj (.data:_ZNSt3__27collateIcE2idE)
                  20006b2c    00000008                                   : locale.cpp.obj (.data:_ZNSt3__27collateIwE2idE)
                  20006b34    00000008                                   : locale.cpp.obj (.data:_ZNSt3__27num_getIcNS_19istreambuf_iteratorIcNS_11char_traitsIcEEEEE2idE)
                  20006b3c    00000008                                   : locale.cpp.obj (.data:_ZNSt3__27num_getIwNS_19istreambuf_iteratorIwNS_11char_traitsIwEEEEE2idE)
                  20006b44    00000008                                   : locale.cpp.obj (.data:_ZNSt3__27num_putIcNS_19ostreambuf_iteratorIcNS_11char_traitsIcEEEEE2idE)
                  20006b4c    00000008                                   : locale.cpp.obj (.data:_ZNSt3__27num_putIwNS_19ostreambuf_iteratorIwNS_11char_traitsIwEEEEE2idE)
                  20006b54    00000008                                   : locale.cpp.obj (.data:_ZNSt3__28messagesIcE2idE)
                  20006b5c    00000008                                   : locale.cpp.obj (.data:_ZNSt3__28messagesIwE2idE)
                  20006b64    00000008                                   : locale.cpp.obj (.data:_ZNSt3__28time_getIcNS_19istreambuf_iteratorIcNS_11char_traitsIcEEEEE2idE)
                  20006b6c    00000008                                   : locale.cpp.obj (.data:_ZNSt3__28time_getIwNS_19istreambuf_iteratorIwNS_11char_traitsIwEEEEE2idE)
                  20006b74    00000008                                   : locale.cpp.obj (.data:_ZNSt3__28time_putIcNS_19ostreambuf_iteratorIcNS_11char_traitsIcEEEEE2idE)
                  20006b7c    00000008                                   : locale.cpp.obj (.data:_ZNSt3__28time_putIwNS_19ostreambuf_iteratorIwNS_11char_traitsIwEEEEE2idE)
                  20006b84    00000008                                   : locale.cpp.obj (.data:_ZNSt3__29money_getIcNS_19istreambuf_iteratorIcNS_11char_traitsIcEEEEE2idE)
                  20006b8c    00000008                                   : locale.cpp.obj (.data:_ZNSt3__29money_getIwNS_19istreambuf_iteratorIwNS_11char_traitsIwEEEEE2idE)
                  20006b94    00000008                                   : locale.cpp.obj (.data:_ZNSt3__29money_putIcNS_19ostreambuf_iteratorIcNS_11char_traitsIcEEEEE2idE)
                  20006b9c    00000008                                   : locale.cpp.obj (.data:_ZNSt3__29money_putIwNS_19ostreambuf_iteratorIwNS_11char_traitsIwEEEEE2idE)
                  20006ba4    00000008     ti.uia.runtime.aem4f : QueueDescriptor.oem4f (.data)
                  20006bac    00000008     empty_pem4f.oem4f (.data:ti_sysbios_family_arm_lm4_TimestampProvider_Module__state__V)
                  20006bb4    00000008     empty_pem4f.oem4f (.data:ti_sysbios_gates_GateHwi_Module__root__V)
                  20006bbc    00000008     empty_pem4f.oem4f (.data:ti_sysbios_gates_GateMutex_Module__root__V)
                  20006bc4    00000008     empty_pem4f.oem4f (.data:ti_sysbios_heaps_HeapMem_Module__root__V)
                  20006bcc    00000008     empty_pem4f.oem4f (.data:ti_sysbios_knl_Clock_Module__root__V)
                  20006bd4    00000008     empty_pem4f.oem4f (.data:ti_sysbios_knl_Queue_Module__root__V)
                  20006bdc    00000008     empty_pem4f.oem4f (.data:ti_sysbios_knl_Semaphore_Module__root__V)
                  20006be4    00000008     empty_pem4f.oem4f (.data:ti_uia_loggers_LoggerStopMode_Module__root__V)
                  20006bec    00000008     empty_pem4f.oem4f (.data:xdc_runtime_Registry_Module__state__V)
                  20006bf4    00000008     empty_pem4f.oem4f (.data:xdc_runtime_Startup_Module__state__V)
                  20006bfc    00000008     empty_pem4f.oem4f (.data:xdc_runtime_System_Module_State_0_atexitHandlers__A)
                  20006c04    00000008     empty_pem4f.oem4f (.data:xdc_runtime_System_Module__state__V)
                  20006c0c    00000004     isotp_user.obj (.data)
                  20006c10    00000004     rtsv7M4_T_le_v4SPD16_eabi.lib : dtor_list.c.obj (.data)
                  20006c14    00000004                                   : errno.c.obj (.data)
                  20006c18    00000004                                   : stkdepth_vars.c.obj (.data)
                  20006c1c    00000004                                   : vla_alloc.c.obj (.data)
                  20006c20    00000004     empty_pem4f.oem4f (.data:ti_sysbios_family_arm_m3_Hwi_Module_State_0_excContext__A)
                  20006c24    00000004     empty_pem4f.oem4f (.data:ti_sysbios_family_arm_m3_Hwi_Module_State_0_excStack__A)
                  20006c28    00000004     empty_pem4f.oem4f (.data:ti_sysbios_gates_GateHwi_Object__table__V)
                  20006c2c    00000004     empty_pem4f.oem4f (.data:ti_sysbios_knl_Task_Module_State_0_idleTask__A)
                  20006c30    00000004     empty_pem4f.oem4f (.data:ti_sysbios_utils_Load_Module_State_0_runningTask__A)
                  20006c34    00000004     empty_pem4f.oem4f (.data:ti_sysbios_utils_Load_Module_State_0_taskStartTime__A)
                  20006c38    00000004     empty_pem4f.oem4f (.data:xdc_runtime_Memory_Module__state__V)
                  20006c3c    00000002     empty_pem4f.oem4f (.data:ti_sysbios_family_arm_m3_Hwi_Module_State_0_excActive__A)
                  20006c3e    00000002     empty_pem4f.oem4f (.data:xdc_runtime_Error_Module__state__V)
                  20006c40    00000002     empty_pem4f.oem4f (.data:xdc_runtime_Main_Module__root__V)

.vtable    0    20007000    0000026c     UNINITIALIZED
                  20007000    0000026c     driverlib.lib : interrupt.obj (.vtable)

.stack     0    20006c48    00000300     UNINITIALIZED
                  20006c48    00000300     --HOLE--

.bootVecs 
*          0    00000000    00000008     DSECT
                  00000000    00000008     boot.aem4f : boot.oem4f (.bootVecs)

.vecs      0    20000000    00000360     UNINITIALIZED
                  20000000    00000360     empty_pem4f.oem4f (.vecs)

xdc.meta   0    00000000    000000da     COPY SECTION
                  00000000    000000da     empty_pem4f.oem4f (xdc.meta)

__llvm_prf_cnts 
*          0    20000000    00000000     UNINITIALIZED

MODULE SUMMARY

       Module                       code     ro data   rw data
       ------                       ----     -------   -------
    .\
       main.obj                     1076     88        7461   
       EK_TM4C123GXL.obj            64       0         0      
    +--+----------------------------+--------+---------+---------+
       Total:                       1140     88        7461   
                                                              
    .\Args\
       ArgumentArray.obj            6276     176       0      
       Argument.obj                 1055     0         0      
    +--+----------------------------+--------+---------+---------+
       Total:                       7331     176       0      
                                                              
    .\ModuleCommunications\
       Can.obj                      12772    345       8282   
       NetReceive.obj               5899     177       0      
       NetComm.obj                  76       157       0      
       Comm.obj                     56       62        0      
       Receive.obj                  56       33        0      
    +--+----------------------------+--------+---------+---------+
       Total:                       18859    774       8282   
                                                              
    .\TransducerServices\
       Handler.obj                  2538     153       0      
    +--+----------------------------+--------+---------+---------+
       Total:                       2538     153       0      
                                                              
    .\Util\
       Codec.obj                    3910     827       0      
    +--+----------------------------+--------+---------+---------+
       Total:                       3910     827       0      
                                                              
    .\isotp\
       isotp.obj                    2956     0         0      
       isotp_user.obj               127      0         4      
    +--+----------------------------+--------+---------+---------+
       Total:                       3083     0         4      
                                                              
    C:\Users\jmotp\workspace_v11\STIM\Debug\configPkg\package\cfg\
       empty_pem4f.oem4f            4882     9911      8542   
    +--+----------------------------+--------+---------+---------+
       Total:                       4882     9911      8542   
                                                              
    C:/ti/tirtos_tivac_2_16_00_08/products/TivaWare_C_Series-2.1.1.71b/driverlib/ccs/Debug/driverlib.lib
       can.obj                      1098     32        0      
       interrupt.obj                156      112       620    
       sysctl.obj                   566      108       0      
       gpio.obj                     436      144       0      
       systick.obj                  84       0         0      
    +--+----------------------------+--------+---------+---------+
       Total:                       2340     396       620    
                                                              
    C:\Users\jmotp\workspace_v11\STIM\src\sysbios\sysbios.aem4f
       BIOS.obj                     12596    0         0      
       m3_Hwi_asm.obj               314      0         0      
       m3_TaskSupport_asm.obj       180      0         0      
       m3_Hwi_asm_switch.obj        118      0         0      
    +--+----------------------------+--------+---------+---------+
       Total:                       13208    0         0      
                                                              
    C:\ti\ccs1120\ccs\tools\compiler\ti-cgt-arm_20.2.6.LTS\lib\rtsv7M4_T_le_v4SPD16_eabi.lib
       locale.cpp.obj               52575    4613      2412   
       _printfi.c.obj               4851     0         0      
       string.cpp.obj               4286     142       0      
       _scanfi.c.obj                2836     16        0      
       ios.cpp.obj                  1614     386       0      
       strftime.c.obj               1124     250       0      
       strtod.c.obj                 1120     200       0      
       strtof.c.obj                 968      88        0      
       vla_alloc.c.obj              564      0         4      
       strtoll.c.obj                476      0         0      
       fd_add_t2.asm.obj            438      0         0      
       defs.c.obj                   0        0         416    
       trgmsg.c.obj                 108      0         288    
       none_mb.c.obj                378      0         0      
       strtoull.c.obj               348      0         0      
       fd_div_t2.asm.obj            310      0         0      
       strtol.c.obj                 304      0         0      
       vec_newdel.c.obj             296      0         0      
       fputs.c.obj                  276      0         0      
       s_scalbn.c.obj               272      0         0      
       strtoul.c.obj                272      0         0      
       fd_cmp_t2.asm.obj            268      0         0      
       ctype.c.obj                  0        257       0      
       fd_mul_t2.asm.obj            252      0         0      
       typeinfo.c.obj               54       193       0      
       setvbuf.c.obj                220      0         0      
       sscanf.c.obj                 218      0         0      
       dtor_list.c.obj              204      0         8      
       s_scalbnf.c.obj              208      0         0      
       fflush.c.obj                 200      0         0      
       host_device.c.obj            0        0         200    
       memcpy_t2.asm.obj            156      0         0      
       ull_div_t2.asm.obj           150      0         0      
       snprintf.c.obj               148      0         0      
       fputc.c.obj                  140      0         0      
       vsnprintf.c.obj              136      0         0      
       memset_t2.asm.obj            122      0         0      
       fclose.c.obj                 116      0         0      
       getdevice.c.obj              116      0         0      
       printf.c.obj                 112      0         0      
       fd_tos_t2.asm.obj            110      0         0      
       fprintf.c.obj                108      0         0      
       hostrename.c.obj             108      0         0      
       copy_decompress_lzss.c.obj   104      0         0      
       hostlseek.c.obj              104      0         0      
       hostopen.c.obj               96       0         8      
       fseek.c.obj                  100      0         0      
       s_frexp.c.obj                100      0         0      
       _io_perm.c.obj               98       0         0      
       sprintf.c.obj                98       0         0      
       close.c.obj                  92       0         0      
       exit.c.obj                   76       0         12     
       hostread.c.obj               88       0         0      
       hostwrite.c.obj              88       0         0      
       _ltoa.c.obj                  84       0         0      
       atoi.c.obj                   76       0         0      
       cpy_tbl.c.obj                76       0         0      
       fd_toi_t2.asm.obj            72       0         0      
       new.cpp.obj                  66       0         4      
       hostclose.c.obj              68       0         0      
       hostunlink.c.obj             68       0         0      
       u_divt2.asm.obj              64       0         0      
       locale_stdio.c.obj           62       0         0      
       strncpy.c.obj                54       0         0      
       vasprintf.c.obj              54       0         0      
       fopen.c.obj                  52       0         0      
       i_tofd_t2.asm.obj            46       0         0      
       locale_stdlib.c.obj          44       0         0      
       unlink.c.obj                 44       0         0      
       lseek.c.obj                  40       0         0      
       memmov.c.obj                 40       0         0      
       write.c.obj                  40       0         0      
       memory.cpp.obj               2        33        0      
       _lock.c.obj                  26       0         8      
       memchr.c.obj                 32       0         0      
       wctype.c.obj                 32       0         0      
       assert.c.obj                 28       0         0      
       memccpy.c.obj                28       0         0      
       asprintf.c.obj               26       0         0      
       s_copysign.c.obj             26       0         0      
       args_main.c.obj              24       0         0      
       ll_mul_t2.asm.obj            24       0         0      
       mutex.cpp.obj                24       0         0      
       s_copysignf.c.obj            24       0         0      
       strcmp.c.obj                 24       0         0      
       strrchr.c.obj                24       0         0      
       stdlib_typeinfo.cpp.obj      2        21        0      
       guard.c.obj                  22       0         0      
       strchr.c.obj                 22       0         0      
       vector.cpp.obj               14       7         0      
       strcpy.c.obj                 20       0         0      
       strlen.c.obj                 20       0         0      
       wmemset.c.obj                20       0         0      
       wcslen.c.obj                 18       0         0      
       tmzone.c.obj                 0        0         16     
       copy_decompress_none.c.obj   14       0         0      
       copy_zero_init.c.obj         12       0         0      
       errno.c.obj                  8        0         4      
       pure_virt.c.obj              6        0         0      
       wmemcpy.c.obj                6        0         0      
       wmemmove.c.obj               6        0         0      
       xlocale.c.obj                6        0         0      
       error.c.obj                  4        0         0      
       exception.cpp.obj            4        0         0      
       locale_time.c.obj            4        0         0      
       stkdepth_vars.c.obj          0        0         4      
       div0.asm.obj                 2        0         0      
    +--+----------------------------+--------+---------+---------+
       Total:                       79210    6206      3384   
                                                              
    C:\ti\tirtos_tivac_2_16_00_08\products\bios_6_45_01_29\packages\ti\catalog\arm\cortexm4\tiva\ce\lib\Boot.aem4f
       Boot_sysctl.oem4f            262      0         0      
       Boot.oem4f                   152      0         0      
    +--+----------------------------+--------+---------+---------+
       Total:                       414      0         0      
                                                              
    C:\ti\tirtos_tivac_2_16_00_08\products\bios_6_45_01_29\packages\ti\targets\arm\rtsarm\lib\auto_init.aem4f
       auto_init.oem4f              160      0         0      
    +--+----------------------------+--------+---------+---------+
       Total:                       160      0         0      
                                                              
    C:\ti\tirtos_tivac_2_16_00_08\products\bios_6_45_01_29\packages\ti\targets\arm\rtsarm\lib\boot.aem4f
       boot.oem4f                   88       0         0      
    +--+----------------------------+--------+---------+---------+
       Total:                       88       0         0      
                                                              
    C:\ti\tirtos_tivac_2_16_00_08\products\bios_6_45_01_29\packages\ti\targets\arm\rtsarm\lib\ti.targets.arm.rtsarm.aem4f
       System.oem4f                 1255     0         0      
       Text.oem4f                   672      0         0      
       Error.oem4f                  524      0         0      
       Core-mem.oem4f               358      0         0      
       Startup.oem4f                328      0         0      
       SysMin.oem4f                 248      0         0      
       Core-smem.oem4f              204      0         0      
       Memory.oem4f                 176      0         0      
       Assert.oem4f                 84       0         0      
       Core-params.oem4f            70       0         0      
       Core-label.oem4f             52       0         0      
       Registry.oem4f               32       0         0      
       Gate.oem4f                   28       0         0      
    +--+----------------------------+--------+---------+---------+
       Total:                       4031     0         0      
                                                              
    C:\ti\tirtos_tivac_2_16_00_08\products\uia_2_00_05_50\packages\ti\uia\loggers\lib\release\ti.uia.loggers.aem4f
       LoggerStopMode.oem4f         552      0         0      
    +--+----------------------------+--------+---------+---------+
       Total:                       552      0         0      
                                                              
    C:\ti\tirtos_tivac_2_16_00_08\products\uia_2_00_05_50\packages\ti\uia\runtime\lib\release\ti.uia.runtime.aem4f
       QueueDescriptor.oem4f        116      0         8      
    +--+----------------------------+--------+---------+---------+
       Total:                       116      0         8      
                                                              
       Stack:                       0        0         768    
       Linker Generated:            0        742       0      
    +--+----------------------------+--------+---------+---------+
       Grand Total:                 141862   19273     29069  


LINKER GENERATED COPY TABLES

__TI_cinit_table @ 000275c0 records: 4, size/record: 8, table size: 32
	.data: load addr=000272f8, load size=000002a2 bytes, run addr=20005cf8, run size=00000f4a bytes, compression=lzss
	.bss: load addr=000275a8, load size=00000008 bytes, run addr=20000380, run size=00005978 bytes, compression=zero_init
	.vecs: load addr=000275b0, load size=00000008 bytes, run addr=20000000, run size=00000360 bytes, compression=zero_init
	.vtable: load addr=000275b8, load size=00000008 bytes, run addr=20007000, run size=0000026c bytes, compression=zero_init


LINKER GENERATED HANDLER TABLE

__TI_handler_table @ 0002759c records: 3, size/record: 4, table size: 12
	index: 0, handler: __TI_zero_init
	index: 1, handler: __TI_decompress_lzss
	index: 2, handler: __TI_decompress_none


GLOBAL SYMBOLS: SORTED ALPHABETICALLY BY Name 

address   name                                                                                                                                                                                                                                                                                       
-------   ----                                                                                                                                                                                                                                                                                       
00022a57  C$$EXIT                                                                                                                                                                                                                                                                                    
0001b6f7  C$$IO$$                                                                                                                                                                                                                                                                                    
0001729d  CANBitRateSet                                                                                                                                                                                                                                                                              
00022691  CANEnable                                                                                                                                                                                                                                                                                  
0001b225  CANInit                                                                                                                                                                                                                                                                                    
0001df65  CANIntClear                                                                                                                                                                                                                                                                                
00022795  CANIntEnable                                                                                                                                                                                                                                                                               
0001f445  CANIntRegister                                                                                                                                                                                                                                                                             
0001e277  CANIntStatus                                                                                                                                                                                                                                                                               
0001077d  CANMessageGet                                                                                                                                                                                                                                                                              
0000db79  CANMessageSet                                                                                                                                                                                                                                                                              
0001a9b7  CANStatusGet                                                                                                                                                                                                                                                                               
0001a9f9  EK_TM4C123GXL_initGeneral                                                                                                                                                                                                                                                                  
0001ce79  GPIODirModeSet                                                                                                                                                                                                                                                                             
0000e91b  GPIOPadConfigSet                                                                                                                                                                                                                                                                           
00019ced  GPIOPinConfigure                                                                                                                                                                                                                                                                           
0002049d  GPIOPinTypeCAN                                                                                                                                                                                                                                                                             
0001a39d  HOSTclose                                                                                                                                                                                                                                                                                  
000176d5  HOSTlseek                                                                                                                                                                                                                                                                                  
00018205  HOSTopen                                                                                                                                                                                                                                                                                   
00018c51  HOSTread                                                                                                                                                                                                                                                                                   
00017309  HOSTrename                                                                                                                                                                                                                                                                                 
0001a3e1  HOSTunlink                                                                                                                                                                                                                                                                                 
00018ca9  HOSTwrite                                                                                                                                                                                                                                                                                  
0001773d  IntEnable                                                                                                                                                                                                                                                                                  
0001bb45  IntRegister                                                                                                                                                                                                                                                                                
0000003c  SHT$$INIT_ARRAY$$Base                                                                                                                                                                                                                                                                      
00000040  SHT$$INIT_ARRAY$$Limit                                                                                                                                                                                                                                                                     
0001088d  SysCtlClockGet                                                                                                                                                                                                                                                                             
00011681  SysCtlClockSet                                                                                                                                                                                                                                                                             
0000ccc3  SysCtlDelay                                                                                                                                                                                                                                                                                
0001bb79  SysCtlPeripheralEnable                                                                                                                                                                                                                                                                     
0001fd41  SysTickEnable                                                                                                                                                                                                                                                                              
0001fd55  SysTickIntEnable                                                                                                                                                                                                                                                                           
0001ebdd  SysTickIntRegister                                                                                                                                                                                                                                                                         
00020749  SysTickPeriodSet                                                                                                                                                                                                                                                                           
00020759  _Z10SycTickIntv                                                                                                                                                                                                                                                                            
00012791  _Z10isotp_pollP9IsoTpLink                                                                                                                                                                                                                                                                  
0001ebf9  _Z10isotp_sendP9IsoTpLinkPKht                                                                                                                                                                                                                                                              
0001d931  _Z12SysTickbeginv                                                                                                                                                                                                                                                                          
00016939  _Z13CANIntHandlerv                                                                                                                                                                                                                                                                         
0002279d  _Z13clockHandler1v                                                                                                                                                                                                                                                                         
00018265  _Z13isotp_receiveP9IsoTpLinkPhtPt                                                                                                                                                                                                                                                          
0001c04b  _Z13swapByteOrderRj                                                                                                                                                                                                                                                                        
0001ec15  _Z13swapByteOrderRt                                                                                                                                                                                                                                                                        
00020769  _Z14CanTaskWrapperv                                                                                                                                                                                                                                                                        
00019583  _Z15isotp_init_linkP9IsoTpLinkjPhtS1_t                                                                                                                                                                                                                                                     
0001f821  _Z16isotp_user_debugPKc                                                                                                                                                                                                                                                                    
0001fd69  _Z17isotp_user_get_msv                                                                                                                                                                                                                                                                     
0000bf25  _Z18isotp_send_with_idP9IsoTpLinkjPKht                                                                                                                                                                                                                                                     
0001e299  _Z19isotp_user_send_canjPKhh                                                                                                                                                                                                                                                               
00006d45  _Z20isotp_on_can_messageP9IsoTpLinkPhh                                                                                                                                                                                                                                                     
0001a7e5  _Z23__finalize_destructionsPP20a_needed_destructionPv                                                                                                                                                                                                                                      
0001a425  _Z25__add_destruction_to_listPP20a_needed_destructionPFYvPvES2_S2_                                                                                                                                                                                                                         
00009d19  _Z8mainTaskv                                                                                                                                                                                                                                                                               
0001f839  _ZN10NetReceive16messageAvailableEv                                                                                                                                                                                                                                                        
0001a829  _ZN10NetReceive22getMessageIncomingInfoEv                                                                                                                                                                                                                                                  
000180dd  _ZN10NetReceive9notifyMsgEtbjjtt                                                                                                                                                                                                                                                           
0001e2b9  _ZN10NetReceiveC1Ev                                                                                                                                                                                                                                                                        
0001e2b9  _ZN10NetReceiveC2Ev                                                                                                                                                                                                                                                                        
0001fd7d  _ZN10NetReceiveD0Ev                                                                                                                                                                                                                                                                        
0001f84f  _ZN10NetReceiveD1Ev                                                                                                                                                                                                                                                                        
0001f84f  _ZN10NetReceiveD2Ev                                                                                                                                                                                                                                                                        
00021009  _ZN10__cxxabiv117__class_type_infoD0Ev                                                                                                                                                                                                                                                     
000071f5  _ZN10__cxxabiv117__class_type_infoD1Ev                                                                                                                                                                                                                                                     
000071f5  _ZN10__cxxabiv117__class_type_infoD2Ev                                                                                                                                                                                                                                                     
00021017  _ZN10__cxxabiv120__si_class_type_infoD0Ev                                                                                                                                                                                                                                                  
000078cd  _ZN10__cxxabiv120__si_class_type_infoD1Ev                                                                                                                                                                                                                                                  
000078cd  _ZN10__cxxabiv120__si_class_type_infoD2Ev                                                                                                                                                                                                                                                  
00021025  _ZN10__cxxabiv121__vmi_class_type_infoD0Ev                                                                                                                                                                                                                                                 
0000a43d  _ZN10__cxxabiv121__vmi_class_type_infoD1Ev                                                                                                                                                                                                                                                 
0000a43d  _ZN10__cxxabiv121__vmi_class_type_infoD2Ev                                                                                                                                                                                                                                                 
0001d6d1  _ZN12CanMessage_tC1EOS_                                                                                                                                                                                                                                                                    
0001d6f7  _ZN12CanMessage_tC1ERKS_                                                                                                                                                                                                                                                                   
00020779  _ZN12CanMessage_tC1Ev                                                                                                                                                                                                                                                                      
00020789  _ZN12CanMessage_tD1Ev                                                                                                                                                                                                                                                                      
0001d71d  _ZN13ArgumentArray10getByIndexEtR8Argument                                                                                                                                                                                                                                                 
00018569  _ZN13ArgumentArray10getIndexesERNSt3__26vectorItNS0_9allocatorItEEEE                                                                                                                                                                                                                       
00018db1  _ZN13ArgumentArray10putByIndexEt8Argument                                                                                                                                                                                                                                                  
00020799  _ZN13ArgumentArray4sizeEv                                                                                                                                                                                                                                                                  
0001ec31  _ZN13ArgumentArrayC1ERKS_                                                                                                                                                                                                                                                                  
0001ec4d  _ZN13ArgumentArrayC1Ev                                                                                                                                                                                                                                                                     
0001ec31  _ZN13ArgumentArrayC2ERKS_                                                                                                                                                                                                                                                                  
0001ec4d  _ZN13ArgumentArrayC2Ev                                                                                                                                                                                                                                                                     
0001fd91  _ZN13ArgumentArrayD0Ev                                                                                                                                                                                                                                                                     
000207a9  _ZN13ArgumentArrayD1Ev                                                                                                                                                                                                                                                                     
000207a9  _ZN13ArgumentArrayD2Ev                                                                                                                                                                                                                                                                     
0001fda5  _ZN3Can10commStatusEttRt                                                                                                                                                                                                                                                                   
000204af  _ZN3Can10leaveGroupEtt                                                                                                                                                                                                                                                                     
000195d1  _ZN3Can11sendMessageEjPKhh                                                                                                                                                                                                                                                                 
000207b9  _ZN3Can12lookupDestIdEtRt                                                                                                                                                                                                                                                                  
000207c9  _ZN3Can14setPayloadSizeEtj                                                                                                                                                                                                                                                                 
0001fdb9  _ZN3Can16sendLocalCommandEhh13ArgumentArrayRS0_                                                                                                                                                                                                                                            
000207d9  _ZN3Can17sendRemoteCommandEt12TimeDurationhh13ArgumentArrayRS1_                                                                                                                                                                                                                            
0002269b  _ZN3Can20discoverDestinationsEv                                                                                                                                                                                                                                                            
000219e7  _ZN3Can21getLocalConfigurationER13ArgumentArray                                                                                                                                                                                                                                            
000219f3  _ZN3Can21setLocalConfigurationE13ArgumentArray                                                                                                                                                                                                                                             
000207e9  _ZN3Can22getRemoteConfigurationEt12TimeDurationR13ArgumentArray                                                                                                                                                                                                                            
000207f9  _ZN3Can22setRemoteConfigurationEt12TimeDuration13ArgumentArray                                                                                                                                                                                                                             
00011b31  _ZN3Can4initEv                                                                                                                                                                                                                                                                             
0001fdcd  _ZN3Can4openEtbRtS0_                                                                                                                                                                                                                                                                       
00021033  _ZN3Can5abortEt                                                                                                                                                                                                                                                                            
00021041  _ZN3Can5closeEt                                                                                                                                                                                                                                                                            
0002104f  _ZN3Can5flushEt                                                                                                                                                                                                                                                                            
000219ff  _ZN3Can5sleepE12TimeDuration                                                                                                                                                                                                                                                               
000226a5  _ZN3Can6wakeupEv                                                                                                                                                                                                                                                                           
0001fde1  _ZN3Can7openQoSEtbRtS0_R10QosParams_                                                                                                                                                                                                                                                       
0001a8af  _ZN3Can7readMsgEt12TimeDurationRjRNSt3__212basic_stringIcNS2_11char_traitsIcEENS2_9allocatorIcEEEERb                                                                                                                                                                                       
00020809  _ZN3Can7readRspEt12TimeDurationtjRNSt3__212basic_stringIcNS1_11char_traitsIcEENS1_9allocatorIcEEEERb                                                                                                                                                                                       
0000c0c1  _ZN3Can8commTaskEv                                                                                                                                                                                                                                                                         
00020819  _ZN3Can8describeERhS0_RNSt3__212basic_stringIcNS1_11char_traitsIcEENS1_9allocatorIcEEEE                                                                                                                                                                                                    
00020829  _ZN3Can8readSizeEtRj                                                                                                                                                                                                                                                                       
000226af  _ZN3Can8shutdownEv                                                                                                                                                                                                                                                                         
000182c5  _ZN3Can8writeMsgEt12TimeDurationNSt3__212basic_stringIcNS1_11char_traitsIcEENS1_9allocatorIcEEEEbt                                                                                                                                                                                         
000112b5  _ZN3Can8writeRspEt12TimeDurationNSt3__212basic_stringIcNS1_11char_traitsIcEENS1_9allocatorIcEEEEb                                                                                                                                                                                          
000204c1  _ZN3Can9joinGroupEtt                                                                                                                                                                                                                                                                       
0001c07d  _ZN3CanC1Ev                                                                                                                                                                                                                                                                                
0001c07d  _ZN3CanC2Ev                                                                                                                                                                                                                                                                                
0001f891  _ZN3CanD0Ev                                                                                                                                                                                                                                                                                
0001e659  _ZN3CanD1Ev                                                                                                                                                                                                                                                                                
0001e659  _ZN3CanD2Ev                                                                                                                                                                                                                                                                                
0001f45d  _ZN4CommC1Ev                                                                                                                                                                                                                                                                               
0001f45d  _ZN4CommC2Ev                                                                                                                                                                                                                                                                               
0001fdf5  _ZN4CommD0Ev                                                                                                                                                                                                                                                                               
00021a0b  _ZN4CommD1Ev                                                                                                                                                                                                                                                                               
00021a0b  _ZN4CommD2Ev                                                                                                                                                                                                                                                                               
00015aff  _ZN5Codec13decodeCommandENSt3__212basic_stringIcNS0_11char_traitsIcEENS0_9allocatorIcEEEERtRhS8_R13ArgumentArray                                                                                                                                                                           
0001033d  _ZN5Codec14encodeResponseEbR13ArgumentArrayRNSt3__212basic_stringIcNS2_11char_traitsIcEENS2_9allocatorIcEEEE                                                                                                                                                                               
0000d3a9  _ZN5Codec24argumentArray2OctetArrayER13ArgumentArrayRNSt3__212basic_stringIcNS2_11char_traitsIcEENS2_9allocatorIcEEEE                                                                                                                                                                      
00020839  _ZN5Codec24octetArray2ArgumentArrayER13ArgumentArrayNSt3__212basic_stringIcNS2_11char_traitsIcEENS2_9allocatorIcEEEE                                                                                                                                                                       
0001f475  _ZN5CodecC1Ev                                                                                                                                                                                                                                                                              
0001f475  _ZN5CodecC2Ev                                                                                                                                                                                                                                                                              
0001fe09  _ZN5CodecD0Ev                                                                                                                                                                                                                                                                              
00021a17  _ZN5CodecD1Ev                                                                                                                                                                                                                                                                              
00021a17  _ZN5CodecD2Ev                                                                                                                                                                                                                                                                              
00014a51  _ZN7Handler13handleCommandEhh13ArgumentArrayRbRS0_                                                                                                                                                                                                                                         
00017375  _ZN7HandlerC1Ev                                                                                                                                                                                                                                                                            
00017375  _ZN7HandlerC2Ev                                                                                                                                                                                                                                                                            
0001fe1d  _ZN7HandlerD0Ev                                                                                                                                                                                                                                                                            
00020849  _ZN7HandlerD1Ev                                                                                                                                                                                                                                                                            
00020849  _ZN7HandlerD2Ev                                                                                                                                                                                                                                                                            
000204d3  _ZN7NetComm18registerNetReceiveEP10NetReceive                                                                                                                                                                                                                                              
0001f48d  _ZN7NetCommC1Ev                                                                                                                                                                                                                                                                            
0001f48d  _ZN7NetCommC2Ev                                                                                                                                                                                                                                                                            
0001fe31  _ZN7NetCommD0Ev                                                                                                                                                                                                                                                                            
0002105d  _ZN7NetCommD1Ev                                                                                                                                                                                                                                                                            
0002105d  _ZN7NetCommD2Ev                                                                                                                                                                                                                                                                            
0001f4a5  _ZN7ReceiveC1Ev                                                                                                                                                                                                                                                                            
0001f4a5  _ZN7ReceiveC2Ev                                                                                                                                                                                                                                                                            
0001fe45  _ZN7ReceiveD0Ev                                                                                                                                                                                                                                                                            
00021a23  _ZN7ReceiveD1Ev                                                                                                                                                                                                                                                                            
00021a23  _ZN7ReceiveD2Ev                                                                                                                                                                                                                                                                            
00013d99  _ZN8Argument5printEv                                                                                                                                                                                                                                                                       
00012191  _ZN8Argument5writeERNSt3__218basic_stringstreamIcNS0_11char_traitsIcEENS0_9allocatorIcEEEE                                                                                                                                                                                                 
000135b1  _ZN8ArgumentC1ENS_8TypeCodeEPv                                                                                                                                                                                                                                                             
000160a9  _ZN8ArgumentC1ERKS_                                                                                                                                                                                                                                                                        
00021a2f  _ZN8ArgumentC1Ev                                                                                                                                                                                                                                                                           
000135b1  _ZN8ArgumentC2ENS_8TypeCodeEPv                                                                                                                                                                                                                                                             
000160a9  _ZN8ArgumentC2ERKS_                                                                                                                                                                                                                                                                        
00021a2f  _ZN8ArgumentC2Ev                                                                                                                                                                                                                                                                           
00019535  _ZN8ArgumentD1Ev                                                                                                                                                                                                                                                                           
00019535  _ZN8ArgumentD2Ev                                                                                                                                                                                                                                                                           
00013ef5  _ZN8ArgumentaSERKS_                                                                                                                                                                                                                                                                        
0001fe59  _ZNKSt16initializer_listIhE3endEv                                                                                                                                                                                                                                                          
0002106b  _ZNKSt16initializer_listIhE4sizeEv                                                                                                                                                                                                                                                         
00021079  _ZNKSt16initializer_listIhE5beginEv                                                                                                                                                                                                                                                        
0001a469  _ZNKSt3__210__time_put8__do_putEPcRS1_PK2tmcc                                                                                                                                                                                                                                              
00014ae9  _ZNKSt3__210__time_put8__do_putEPwRS1_PK2tmcc                                                                                                                                                                                                                                              
0001ec69  _ZNKSt3__210moneypunctIcLb0EE11do_groupingEv                                                                                                                                                                                                                                               
0001e677  _ZNKSt3__210moneypunctIcLb0EE13do_neg_formatEv                                                                                                                                                                                                                                             
0001e695  _ZNKSt3__210moneypunctIcLb0EE13do_pos_formatEv                                                                                                                                                                                                                                             
0001ec85  _ZNKSt3__210moneypunctIcLb0EE14do_curr_symbolEv                                                                                                                                                                                                                                            
0000da2d  _ZNKSt3__210moneypunctIcLb0EE14do_frac_digitsEv                                                                                                                                                                                                                                            
0000fcad  _ZNKSt3__210moneypunctIcLb0EE16do_decimal_pointEv                                                                                                                                                                                                                                          
0001e6b3  _ZNKSt3__210moneypunctIcLb0EE16do_negative_signEv                                                                                                                                                                                                                                          
0001eca1  _ZNKSt3__210moneypunctIcLb0EE16do_positive_signEv                                                                                                                                                                                                                                          
00011df5  _ZNKSt3__210moneypunctIcLb0EE16do_thousands_sepEv                                                                                                                                                                                                                                          
0001ecbd  _ZNKSt3__210moneypunctIcLb1EE11do_groupingEv                                                                                                                                                                                                                                               
0001e6d1  _ZNKSt3__210moneypunctIcLb1EE13do_neg_formatEv                                                                                                                                                                                                                                             
0001e6ef  _ZNKSt3__210moneypunctIcLb1EE13do_pos_formatEv                                                                                                                                                                                                                                             
0001ecd9  _ZNKSt3__210moneypunctIcLb1EE14do_curr_symbolEv                                                                                                                                                                                                                                            
000126b5  _ZNKSt3__210moneypunctIcLb1EE14do_frac_digitsEv                                                                                                                                                                                                                                            
0001366d  _ZNKSt3__210moneypunctIcLb1EE16do_decimal_pointEv                                                                                                                                                                                                                                          
0001e70d  _ZNKSt3__210moneypunctIcLb1EE16do_negative_signEv                                                                                                                                                                                                                                          
0001ecf5  _ZNKSt3__210moneypunctIcLb1EE16do_positive_signEv                                                                                                                                                                                                                                          
0001372d  _ZNKSt3__210moneypunctIcLb1EE16do_thousands_sepEv                                                                                                                                                                                                                                          
0001ed11  _ZNKSt3__210moneypunctIwLb0EE11do_groupingEv                                                                                                                                                                                                                                               
0001e72b  _ZNKSt3__210moneypunctIwLb0EE13do_neg_formatEv                                                                                                                                                                                                                                             
0001e749  _ZNKSt3__210moneypunctIwLb0EE13do_pos_formatEv                                                                                                                                                                                                                                             
0001ed2d  _ZNKSt3__210moneypunctIwLb0EE14do_curr_symbolEv                                                                                                                                                                                                                                            
00013a15  _ZNKSt3__210moneypunctIwLb0EE14do_frac_digitsEv                                                                                                                                                                                                                                            
0001395b  _ZNKSt3__210moneypunctIwLb0EE16do_decimal_pointEv                                                                                                                                                                                                                                          
0001e767  _ZNKSt3__210moneypunctIwLb0EE16do_negative_signEv                                                                                                                                                                                                                                          
0001ed49  _ZNKSt3__210moneypunctIwLb0EE16do_positive_signEv                                                                                                                                                                                                                                          
000228a1  _ZNKSt3__210moneypunctIwLb0EE16do_thousands_sepEv                                                                                                                                                                                                                                          
0001ed65  _ZNKSt3__210moneypunctIwLb1EE11do_groupingEv                                                                                                                                                                                                                                               
0001e785  _ZNKSt3__210moneypunctIwLb1EE13do_neg_formatEv                                                                                                                                                                                                                                             
0001e7a3  _ZNKSt3__210moneypunctIwLb1EE13do_pos_formatEv                                                                                                                                                                                                                                             
0001ed81  _ZNKSt3__210moneypunctIwLb1EE14do_curr_symbolEv                                                                                                                                                                                                                                            
00013e45  _ZNKSt3__210moneypunctIwLb1EE14do_frac_digitsEv                                                                                                                                                                                                                                            
000228a7  _ZNKSt3__210moneypunctIwLb1EE16do_decimal_pointEv                                                                                                                                                                                                                                          
0001e7c1  _ZNKSt3__210moneypunctIwLb1EE16do_negative_signEv                                                                                                                                                                                                                                          
0001ed9d  _ZNKSt3__210moneypunctIwLb1EE16do_positive_signEv                                                                                                                                                                                                                                          
000228ad  _ZNKSt3__210moneypunctIwLb1EE16do_thousands_sepEv                                                                                                                                                                                                                                          
00021087  _ZNKSt3__210unique_ptrINS_11__tree_nodeINS_12__value_typeIi12CanMessage_tEEPvEENS_22__tree_node_destructorINS_9allocatorIS6_EEEEE3getEv                                                                                                                                                    
00021095  _ZNKSt3__210unique_ptrINS_11__tree_nodeINS_12__value_typeIi12CanMessage_tEEPvEENS_22__tree_node_destructorINS_9allocatorIS6_EEEEEptEv                                                                                                                                                      
000210a3  _ZNKSt3__210unique_ptrIP12CanMessage_tNS_22__allocator_destructorINS_9allocatorIS1_EEEEE3getEv                                                                                                                                                                                             
000210b1  _ZNKSt3__210unique_ptrIP19messageIncomingInfoNS_22__allocator_destructorINS_9allocatorIS1_EEEEE3getEv                                                                                                                                                                                      
000210bf  _ZNKSt3__211__wrap_iterIPKNS_5tupleIJNS_12basic_stringIcNS_11char_traitsIcEENS_9allocatorIcEEEE8ArgumentEEEE4baseEv                                                                                                                                                                        
000210cd  _ZNKSt3__211__wrap_iterIPNS_5tupleIJNS_12basic_stringIcNS_11char_traitsIcEENS_9allocatorIcEEEE8ArgumentEEEE4baseEv                                                                                                                                                                         
0001f4bd  _ZNKSt3__211__wrap_iterIPNS_5tupleIJNS_12basic_stringIcNS_11char_traitsIcEENS_9allocatorIcEEEE8ArgumentEEEEplEi                                                                                                                                                                            
000210db  _ZNKSt3__211__wrap_iterIPcE4baseEv                                                                                                                                                                                                                                                         
000210e9  _ZNKSt3__211__wrap_iterIPcEdeEv                                                                                                                                                                                                                                                            
000210f7  _ZNKSt3__211__wrap_iterIPhE4baseEv                                                                                                                                                                                                                                                         
00021105  _ZNKSt3__211__wrap_iterIPhEdeEv                                                                                                                                                                                                                                                            
00021113  _ZNKSt3__211__wrap_iterIPtE4baseEv                                                                                                                                                                                                                                                         
00021121  _ZNKSt3__211__wrap_iterIPtEdeEv                                                                                                                                                                                                                                                            
0002112f  _ZNKSt3__212__deque_baseI12CanMessage_tNS_9allocatorIS1_EEE4sizeEv                                                                                                                                                                                                                         
0002113d  _ZNKSt3__212__deque_baseI19messageIncomingInfoNS_9allocatorIS1_EEE4sizeEv                                                                                                                                                                                                                  
000226b9  _ZNKSt3__212basic_stringIcNS_11char_traitsIcEENS_9allocatorIcEEE13get_allocatorEv                                                                                                                                                                                                          
0001f8a7  _ZNKSt3__212basic_stringIcNS_11char_traitsIcEENS_9allocatorIcEEE4dataEv                                                                                                                                                                                                                    
0001f8bd  _ZNKSt3__212basic_stringIcNS_11char_traitsIcEENS_9allocatorIcEEE4sizeEv                                                                                                                                                                                                                    
0001f8d3  _ZNKSt3__212basic_stringIcNS_11char_traitsIcEENS_9allocatorIcEEE5c_strEv                                                                                                                                                                                                                   
0001edb9  _ZNKSt3__212basic_stringIcNS_11char_traitsIcEENS_9allocatorIcEEE8capacityEv                                                                                                                                                                                                                
000228b3  _ZNKSt3__212basic_stringIcNS_11char_traitsIcEENS_9allocatorIcEEE8max_sizeEv                                                                                                                                                                                                                
0002114b  _ZNKSt3__213__vector_baseINS_5tupleIJNS_12basic_stringIcNS_11char_traitsIcEENS_9allocatorIcEEEE8ArgumentEEENS5_IS9_EEE7__allocEv                                                                                                                                                           
0001f8e9  _ZNKSt3__213__vector_baseINS_5tupleIJNS_12basic_stringIcNS_11char_traitsIcEENS_9allocatorIcEEEE8ArgumentEEENS5_IS9_EEE8capacityEv                                                                                                                                                          
00021159  _ZNKSt3__213__vector_baseINS_5tupleIJNS_12basic_stringIcNS_11char_traitsIcEENS_9allocatorIcEEEE8ArgumentEEENS5_IS9_EEE9__end_capEv                                                                                                                                                         
00021167  _ZNKSt3__213__vector_baseIhNS_9allocatorIhEEE7__allocEv                                                                                                                                                                                                                                    
0001fe6d  _ZNKSt3__213__vector_baseIhNS_9allocatorIhEEE8capacityEv                                                                                                                                                                                                                                   
00021175  _ZNKSt3__213__vector_baseIhNS_9allocatorIhEEE9__end_capEv                                                                                                                                                                                                                                  
00021183  _ZNKSt3__213__vector_baseItNS_9allocatorItEEE7__allocEv                                                                                                                                                                                                                                    
0001f8ff  _ZNKSt3__213__vector_baseItNS_9allocatorItEEE8capacityEv                                                                                                                                                                                                                                   
00021191  _ZNKSt3__213__vector_baseItNS_9allocatorItEEE9__end_capEv                                                                                                                                                                                                                                  
0002119f  _ZNKSt3__213move_iteratorIPNS_5tupleIJNS_12basic_stringIcNS_11char_traitsIcEENS_9allocatorIcEEEE8ArgumentEEEE4baseEv                                                                                                                                                                       
000211ad  _ZNKSt3__213move_iteratorIPNS_5tupleIJNS_12basic_stringIcNS_11char_traitsIcEENS_9allocatorIcEEEE8ArgumentEEEEdeEv                                                                                                                                                                          
000211bb  _ZNKSt3__213move_iteratorIPP12CanMessage_tE4baseEv                                                                                                                                                                                                                                         
000211c9  _ZNKSt3__213move_iteratorIPP12CanMessage_tEdeEv                                                                                                                                                                                                                                            
000211d7  _ZNKSt3__213move_iteratorIPP19messageIncomingInfoE4baseEv                                                                                                                                                                                                                                  
000211e5  _ZNKSt3__213move_iteratorIPP19messageIncomingInfoEdeEv                                                                                                                                                                                                                                     
0001f915  _ZNKSt3__214__split_bufferINS_5tupleIJNS_12basic_stringIcNS_11char_traitsIcEENS_9allocatorIcEEEE8ArgumentEEERNS5_IS9_EEE8capacityEv                                                                                                                                                        
000211f3  _ZNKSt3__214__split_bufferINS_5tupleIJNS_12basic_stringIcNS_11char_traitsIcEENS_9allocatorIcEEEE8ArgumentEEERNS5_IS9_EEE9__end_capEv                                                                                                                                                       
0001f92b  _ZNKSt3__214__split_bufferIP12CanMessage_tNS_9allocatorIS2_EEE12__back_spareEv                                                                                                                                                                                                             
0001f941  _ZNKSt3__214__split_bufferIP12CanMessage_tNS_9allocatorIS2_EEE4sizeEv                                                                                                                                                                                                                      
0001f23d  _ZNKSt3__214__split_bufferIP12CanMessage_tNS_9allocatorIS2_EEE5emptyEv                                                                                                                                                                                                                     
0001f957  _ZNKSt3__214__split_bufferIP12CanMessage_tNS_9allocatorIS2_EEE8capacityEv                                                                                                                                                                                                                  
00021201  _ZNKSt3__214__split_bufferIP12CanMessage_tNS_9allocatorIS2_EEE9__end_capEv                                                                                                                                                                                                                 
0001f96d  _ZNKSt3__214__split_bufferIP12CanMessage_tRNS_9allocatorIS2_EEE8capacityEv                                                                                                                                                                                                                 
0002120f  _ZNKSt3__214__split_bufferIP12CanMessage_tRNS_9allocatorIS2_EEE9__end_capEv                                                                                                                                                                                                                
0001f983  _ZNKSt3__214__split_bufferIP19messageIncomingInfoNS_9allocatorIS2_EEE12__back_spareEv                                                                                                                                                                                                      
0001f999  _ZNKSt3__214__split_bufferIP19messageIncomingInfoNS_9allocatorIS2_EEE4sizeEv                                                                                                                                                                                                               
0001f257  _ZNKSt3__214__split_bufferIP19messageIncomingInfoNS_9allocatorIS2_EEE5emptyEv                                                                                                                                                                                                              
0001f9af  _ZNKSt3__214__split_bufferIP19messageIncomingInfoNS_9allocatorIS2_EEE8capacityEv                                                                                                                                                                                                           
0002121d  _ZNKSt3__214__split_bufferIP19messageIncomingInfoNS_9allocatorIS2_EEE9__end_capEv                                                                                                                                                                                                          
0001f9c5  _ZNKSt3__214__split_bufferIP19messageIncomingInfoRNS_9allocatorIS2_EEE8capacityEv                                                                                                                                                                                                          
0002122b  _ZNKSt3__214__split_bufferIP19messageIncomingInfoRNS_9allocatorIS2_EEE9__end_capEv                                                                                                                                                                                                         
0001f9db  _ZNKSt3__214__split_bufferItRNS_9allocatorItEEE8capacityEv                                                                                                                                                                                                                                 
00021239  _ZNKSt3__214__split_bufferItRNS_9allocatorItEEE9__end_capEv                                                                                                                                                                                                                                
00021247  _ZNKSt3__215__tree_iteratorINS_12__value_typeIi12CanMessage_tEEPNS_11__tree_nodeIS3_PvEEiE8__get_npEv                                                                                                                                                                                      
00021255  _ZNKSt3__215__tree_iteratorINS_12__value_typeIi12CanMessage_tEEPNS_11__tree_nodeIS3_PvEEiEdeEv                                                                                                                                                                                             
000204e5  _ZNKSt3__215__tree_iteratorINS_12__value_typeIi12CanMessage_tEEPNS_11__tree_nodeIS3_PvEEiEptEv                                                                                                                                                                                             
00015325  _ZNKSt3__215basic_streambufIcNS_11char_traitsIcEEE4gptrEv                                                                                                                                                                                                                                  
000153bd  _ZNKSt3__215basic_streambufIcNS_11char_traitsIcEEE4pptrEv                                                                                                                                                                                                                                  
00015455  _ZNKSt3__215basic_streambufIcNS_11char_traitsIcEEE5ebackEv                                                                                                                                                                                                                                 
00015d9d  _ZNKSt3__215basic_streambufIcNS_11char_traitsIcEEE5egptrEv                                                                                                                                                                                                                                 
00016ffd  _ZNKSt3__215basic_streambufIcNS_11char_traitsIcEEE5epptrEv                                                                                                                                                                                                                                 
00018075  _ZNKSt3__215basic_streambufIcNS_11char_traitsIcEEE5pbaseEv                                                                                                                                                                                                                                 
000156a1  _ZNKSt3__215basic_stringbufIcNS_11char_traitsIcEENS_9allocatorIcEEE3strEv                                                                                                                                                                                                                  
00021263  _ZNKSt3__216__deque_iteratorI12CanMessage_tPS1_RS1_PS2_iLi0EEdeEv                                                                                                                                                                                                                          
00021271  _ZNKSt3__216__deque_iteratorI19messageIncomingInfoPS1_RS1_PS2_iLi0EEdeEv                                                                                                                                                                                                                   
0002127f  _ZNKSt3__216__tree_node_baseIPvE15__parent_unsafeEv                                                                                                                                                                                                                                        
00021a3b  _ZNKSt3__217__compressed_pairINS_15__tree_end_nodeIPNS_16__tree_node_baseIPvEEEENS_9allocatorINS_11__tree_nodeINS_12__value_typeIi12CanMessage_tEES3_EEEEE5firstEv                                                                                                                         
00021a47  _ZNKSt3__217__compressed_pairIP12CanMessage_tNS_22__allocator_destructorINS_9allocatorIS1_EEEEE5firstEv                                                                                                                                                                                    
00021a53  _ZNKSt3__217__compressed_pairIP19messageIncomingInfoNS_22__allocator_destructorINS_9allocatorIS1_EEEEE5firstEv                                                                                                                                                                             
00021a5f  _ZNKSt3__217__compressed_pairIPNS_11__tree_nodeINS_12__value_typeIi12CanMessage_tEEPvEENS_22__tree_node_destructorINS_9allocatorIS6_EEEEE5firstEv                                                                                                                                          
00021a6b  _ZNKSt3__217__compressed_pairIPNS_5tupleIJNS_12basic_stringIcNS_11char_traitsIcEENS_9allocatorIcEEEE8ArgumentEEENS5_IS9_EEE5firstEv                                                                                                                                                        
00021a77  _ZNKSt3__217__compressed_pairIPNS_5tupleIJNS_12basic_stringIcNS_11char_traitsIcEENS_9allocatorIcEEEE8ArgumentEEENS5_IS9_EEE6secondEv                                                                                                                                                       
00021a83  _ZNKSt3__217__compressed_pairIPNS_5tupleIJNS_12basic_stringIcNS_11char_traitsIcEENS_9allocatorIcEEEE8ArgumentEEERNS5_IS9_EEE5firstEv                                                                                                                                                       
00021a8f  _ZNKSt3__217__compressed_pairIPP12CanMessage_tNS_9allocatorIS2_EEE5firstEv                                                                                                                                                                                                                 
00021a9b  _ZNKSt3__217__compressed_pairIPP12CanMessage_tRNS_9allocatorIS2_EEE5firstEv                                                                                                                                                                                                                
00021aa7  _ZNKSt3__217__compressed_pairIPP19messageIncomingInfoNS_9allocatorIS2_EEE5firstEv                                                                                                                                                                                                          
00021ab3  _ZNKSt3__217__compressed_pairIPP19messageIncomingInfoRNS_9allocatorIS2_EEE5firstEv                                                                                                                                                                                                         
00021abf  _ZNKSt3__217__compressed_pairIPhNS_9allocatorIhEEE5firstEv                                                                                                                                                                                                                                 
00021acb  _ZNKSt3__217__compressed_pairIPhNS_9allocatorIhEEE6secondEv                                                                                                                                                                                                                                
00021ad7  _ZNKSt3__217__compressed_pairIPtNS_9allocatorItEEE5firstEv                                                                                                                                                                                                                                 
00021ae3  _ZNKSt3__217__compressed_pairIPtNS_9allocatorItEEE6secondEv                                                                                                                                                                                                                                
00021aef  _ZNKSt3__217__compressed_pairIPtRNS_9allocatorItEEE5firstEv                                                                                                                                                                                                                                
00021afb  _ZNKSt3__217__compressed_pairIjNS_9allocatorI12CanMessage_tEEE5firstEv                                                                                                                                                                                                                     
00021b07  _ZNKSt3__217__compressed_pairIjNS_9allocatorI19messageIncomingInfoEEE5firstEv                                                                                                                                                                                                              
000204f7  _ZNKSt3__218basic_stringstreamIcNS_11char_traitsIcEENS_9allocatorIcEEE3strEv                                                                                                                                                                                                               
0001fe81  _ZNKSt3__219__map_value_compareIiNS_12__value_typeIi12CanMessage_tEENS_4lessIiEELb1EEclERKS3_RKi                                                                                                                                                                                           
0001fe95  _ZNKSt3__219__map_value_compareIiNS_12__value_typeIi12CanMessage_tEENS_4lessIiEELb1EEclERKiRKS3_                                                                                                                                                                                           
000185c7  _ZNKSt3__219istreambuf_iteratorIcNS_11char_traitsIcEEE5equalERKS3_                                                                                                                                                                                                                         
00018625  _ZNKSt3__219istreambuf_iteratorIwNS_11char_traitsIwEEE5equalERKS3_                                                                                                                                                                                                                         
0001780d  _ZNKSt3__220__time_get_c_storageIcE3__XEv                                                                                                                                                                                                                                                  
00015c95  _ZNKSt3__220__time_get_c_storageIcE3__cEv                                                                                                                                                                                                                                                  
000165f5  _ZNKSt3__220__time_get_c_storageIcE3__rEv                                                                                                                                                                                                                                                  
00017875  _ZNKSt3__220__time_get_c_storageIcE3__xEv                                                                                                                                                                                                                                                  
0001572d  _ZNKSt3__220__time_get_c_storageIcE7__am_pmEv                                                                                                                                                                                                                                              
0000d0f1  _ZNKSt3__220__time_get_c_storageIcE7__weeksEv                                                                                                                                                                                                                                              
00007d21  _ZNKSt3__220__time_get_c_storageIcE8__monthsEv                                                                                                                                                                                                                                             
0001293d  _ZNKSt3__220__time_get_c_storageIwE3__XEv                                                                                                                                                                                                                                                  
00011ee5  _ZNKSt3__220__time_get_c_storageIwE3__cEv                                                                                                                                                                                                                                                  
00012869  _ZNKSt3__220__time_get_c_storageIwE3__rEv                                                                                                                                                                                                                                                  
00012a0d  _ZNKSt3__220__time_get_c_storageIwE3__xEv                                                                                                                                                                                                                                                  
000150d5  _ZNKSt3__220__time_get_c_storageIwE7__am_pmEv                                                                                                                                                                                                                                              
0000a7b9  _ZNKSt3__220__time_get_c_storageIwE7__weeksEv                                                                                                                                                                                                                                              
00005ea1  _ZNKSt3__220__time_get_c_storageIwE8__monthsEv                                                                                                                                                                                                                                             
00021b15  _ZNKSt3__220__vector_base_commonILb1EE20__throw_length_errorEv                                                                                                                                                                                                                             
00021b21  _ZNKSt3__221__basic_string_commonILb1EE20__throw_length_errorEv                                                                                                                                                                                                                            
00021b2d  _ZNKSt3__221__basic_string_commonILb1EE20__throw_out_of_rangeEv                                                                                                                                                                                                                            
0002128d  _ZNKSt3__221__tree_const_iteratorINS_12__value_typeIi12CanMessage_tEEPNS_11__tree_nodeIS3_PvEEiE8__get_npEv                                                                                                                                                                                
0002129b  _ZNKSt3__221__tree_const_iteratorINS_12__value_typeIi12CanMessage_tEEPNS_11__tree_nodeIS3_PvEEiEdeEv                                                                                                                                                                                       
00021b39  _ZNKSt3__222__compressed_pair_elemINS_12basic_stringIcNS_11char_traitsIcEENS_9allocatorIcEEE5__repELi0ELb0EE5__getEv                                                                                                                                                                       
000015a3  _ZNKSt3__222__compressed_pair_elemINS_12basic_stringIwNS_11char_traitsIwEENS_9allocatorIwEEE5__repELi0ELb0EE5__getEv                                                                                                                                                                       
00021b45  _ZNKSt3__222__compressed_pair_elemINS_15__tree_end_nodeIPNS_16__tree_node_baseIPvEEEELi0ELb0EE5__getEv                                                                                                                                                                                     
00021b51  _ZNKSt3__222__compressed_pair_elemINS_9allocatorINS_5tupleIJNS_12basic_stringIcNS_11char_traitsIcEENS1_IcEEEE8ArgumentEEEEELi1ELb1EE5__getEv                                                                                                                                               
00021b5d  _ZNKSt3__222__compressed_pair_elemINS_9allocatorIcEELi1ELb1EE5__getEv                                                                                                                                                                                                                      
00021b69  _ZNKSt3__222__compressed_pair_elemINS_9allocatorIhEELi1ELb1EE5__getEv                                                                                                                                                                                                                      
00021b75  _ZNKSt3__222__compressed_pair_elemINS_9allocatorItEELi1ELb1EE5__getEv                                                                                                                                                                                                                      
00021b81  _ZNKSt3__222__compressed_pair_elemIP12CanMessage_tLi0ELb0EE5__getEv                                                                                                                                                                                                                        
00021b8d  _ZNKSt3__222__compressed_pair_elemIP19messageIncomingInfoLi0ELb0EE5__getEv                                                                                                                                                                                                                 
00021b99  _ZNKSt3__222__compressed_pair_elemIPNS_11__tree_nodeINS_12__value_typeIi12CanMessage_tEEPvEELi0ELb0EE5__getEv                                                                                                                                                                              
00021ba5  _ZNKSt3__222__compressed_pair_elemIPNS_5tupleIJNS_12basic_stringIcNS_11char_traitsIcEENS_9allocatorIcEEEE8ArgumentEEELi0ELb0EE5__getEv                                                                                                                                                     
00021bb1  _ZNKSt3__222__compressed_pair_elemIPP12CanMessage_tLi0ELb0EE5__getEv                                                                                                                                                                                                                       
00021bbd  _ZNKSt3__222__compressed_pair_elemIPP19messageIncomingInfoLi0ELb0EE5__getEv                                                                                                                                                                                                                
00021bc9  _ZNKSt3__222__compressed_pair_elemIPhLi0ELb0EE5__getEv                                                                                                                                                                                                                                     
00021bd5  _ZNKSt3__222__compressed_pair_elemIPtLi0ELb0EE5__getEv                                                                                                                                                                                                                                     
00021be1  _ZNKSt3__222__compressed_pair_elemIjLi0ELb0EE5__getEv                                                                                                                                                                                                                                      
00020859  _ZNKSt3__24fposIiEcvxEv                                                                                                                                                                                                                                                                    
0001e7df  _ZNKSt3__24lessIiEclERKiS3_                                                                                                                                                                                                                                                                
0001b349  _ZNKSt3__25ctypeIcE10do_tolowerEPcPKc                                                                                                                                                                                                                                                      
0001d955  _ZNKSt3__25ctypeIcE10do_tolowerEc                                                                                                                                                                                                                                                          
0001b381  _ZNKSt3__25ctypeIcE10do_toupperEPcPKc                                                                                                                                                                                                                                                      
0001d979  _ZNKSt3__25ctypeIcE10do_toupperEc                                                                                                                                                                                                                                                          
000226c3  _ZNKSt3__25ctypeIcE5widenEPKcS3_Pc                                                                                                                                                                                                                                                         
000226cd  _ZNKSt3__25ctypeIcE5widenEc                                                                                                                                                                                                                                                                
000226d7  _ZNKSt3__25ctypeIcE6narrowEcc                                                                                                                                                                                                                                                              
000226e1  _ZNKSt3__25ctypeIcE7toupperEc                                                                                                                                                                                                                                                              
0001f4d5  _ZNKSt3__25ctypeIcE8do_widenEPKcS3_Pc                                                                                                                                                                                                                                                      
00018505  _ZNKSt3__25ctypeIcE8do_widenEc                                                                                                                                                                                                                                                             
0001df87  _ZNKSt3__25ctypeIcE9do_narrowEPKcS3_cPc                                                                                                                                                                                                                                                    
00021bed  _ZNKSt3__25ctypeIcE9do_narrowEcc                                                                                                                                                                                                                                                           
0001cecd  _ZNKSt3__25ctypeIwE10do_scan_isEhPKwS3_                                                                                                                                                                                                                                                    
0001b3b9  _ZNKSt3__25ctypeIwE10do_tolowerEPwPKw                                                                                                                                                                                                                                                      
0001d99d  _ZNKSt3__25ctypeIwE10do_tolowerEw                                                                                                                                                                                                                                                          
0001b3f1  _ZNKSt3__25ctypeIwE10do_toupperEPwPKw                                                                                                                                                                                                                                                      
0001dfa9  _ZNKSt3__25ctypeIwE10do_toupperEw                                                                                                                                                                                                                                                          
0001cef7  _ZNKSt3__25ctypeIwE11do_scan_notEhPKwS3_                                                                                                                                                                                                                                                   
000226eb  _ZNKSt3__25ctypeIwE2isEhw                                                                                                                                                                                                                                                                  
0001c651  _ZNKSt3__25ctypeIwE5do_isEPKwS3_Ph                                                                                                                                                                                                                                                         
0001edd5  _ZNKSt3__25ctypeIwE5do_isEhw                                                                                                                                                                                                                                                               
000226f5  _ZNKSt3__25ctypeIwE5widenEPKcS3_Pw                                                                                                                                                                                                                                                         
000226ff  _ZNKSt3__25ctypeIwE5widenEc                                                                                                                                                                                                                                                                
0001f4ed  _ZNKSt3__25ctypeIwE8do_widenEPKcS3_Pw                                                                                                                                                                                                                                                      
0001890d  _ZNKSt3__25ctypeIwE8do_widenEc                                                                                                                                                                                                                                                             
0001d9c1  _ZNKSt3__25ctypeIwE9do_narrowEPKwS3_cPc                                                                                                                                                                                                                                                    
00021bf9  _ZNKSt3__25ctypeIwE9do_narrowEwc                                                                                                                                                                                                                                                           
0001edf1  _ZNKSt3__25dequeI12CanMessage_tNS_9allocatorIS1_EEE10__capacityEv                                                                                                                                                                                                                          
0001e7fd  _ZNKSt3__25dequeI12CanMessage_tNS_9allocatorIS1_EEE12__back_spareEv                                                                                                                                                                                                                        
000212a9  _ZNKSt3__25dequeI12CanMessage_tNS_9allocatorIS1_EEE13__front_spareEv                                                                                                                                                                                                                       
0001ee0d  _ZNKSt3__25dequeI19messageIncomingInfoNS_9allocatorIS1_EEE10__capacityEv                                                                                                                                                                                                                   
0001e81b  _ZNKSt3__25dequeI19messageIncomingInfoNS_9allocatorIS1_EEE12__back_spareEv                                                                                                                                                                                                                 
000212b7  _ZNKSt3__25dequeI19messageIncomingInfoNS_9allocatorIS1_EEE13__front_spareEv                                                                                                                                                                                                                
000212c5  _ZNKSt3__25dequeI19messageIncomingInfoNS_9allocatorIS1_EEE4sizeEv                                                                                                                                                                                                                          
00021c05  _ZNKSt3__25queueI19messageIncomingInfoNS_5dequeIS1_NS_9allocatorIS1_EEEEE4sizeEv                                                                                                                                                                                                           
0001e839  _ZNKSt3__26__lessIPcS1_EclERKS1_S4_                                                                                                                                                                                                                                                        
0001e857  _ZNKSt3__26__lessIjjEclERKjS3_                                                                                                                                                                                                                                                             
00020509  _ZNKSt3__26__treeINS_12__value_typeIi12CanMessage_tEENS_19__map_value_compareIiS3_NS_4lessIiEELb1EEENS_9allocatorIS3_EEE10__end_nodeEv                                                                                                                                                     
00020869  _ZNKSt3__26__treeINS_12__value_typeIi12CanMessage_tEENS_19__map_value_compareIiS3_NS_4lessIiEELb1EEENS_9allocatorIS3_EEE10__root_ptrEv                                                                                                                                                     
000212d3  _ZNKSt3__26__treeINS_12__value_typeIi12CanMessage_tEENS_19__map_value_compareIiS3_NS_4lessIiEELb1EEENS_9allocatorIS3_EEE6__rootEv                                                                                                                                                          
000227a5  _ZNKSt3__26locale5__imp9use_facetEl                                                                                                                                                                                                                                                        
0001f9f1  _ZNKSt3__26locale9use_facetERNS0_2idE                                                                                                                                                                                                                                                      
00019a51  _ZNKSt3__26vectorINS_5tupleIJNS_12basic_stringIcNS_11char_traitsIcEENS_9allocatorIcEEEE8ArgumentEEENS5_IS9_EEE11__recommendEj                                                                                                                                                              
0001910d  _ZNKSt3__26vectorINS_5tupleIJNS_12basic_stringIcNS_11char_traitsIcEENS_9allocatorIcEEEE8ArgumentEEENS5_IS9_EEE14__annotate_newEj                                                                                                                                                           
00018e07  _ZNKSt3__26vectorINS_5tupleIJNS_12basic_stringIcNS_11char_traitsIcEENS_9allocatorIcEEEE8ArgumentEEENS5_IS9_EEE17__annotate_deleteEv                                                                                                                                                        
00020879  _ZNKSt3__26vectorINS_5tupleIJNS_12basic_stringIcNS_11char_traitsIcEENS_9allocatorIcEEEE8ArgumentEEENS5_IS9_EEE31__annotate_contiguous_containerEPKvSD_SD_SD_                                                                                                                               
000212e1  _ZNKSt3__26vectorINS_5tupleIJNS_12basic_stringIcNS_11char_traitsIcEENS_9allocatorIcEEEE8ArgumentEEENS5_IS9_EEE4dataEv                                                                                                                                                                      
0001fa07  _ZNKSt3__26vectorINS_5tupleIJNS_12basic_stringIcNS_11char_traitsIcEENS_9allocatorIcEEEE8ArgumentEEENS5_IS9_EEE4sizeEv                                                                                                                                                                      
00021c11  _ZNKSt3__26vectorINS_5tupleIJNS_12basic_stringIcNS_11char_traitsIcEENS_9allocatorIcEEEE8ArgumentEEENS5_IS9_EEE8capacityEv                                                                                                                                                                  
0001d9e5  _ZNKSt3__26vectorINS_5tupleIJNS_12basic_stringIcNS_11char_traitsIcEENS_9allocatorIcEEEE8ArgumentEEENS5_IS9_EEE8max_sizeEv                                                                                                                                                                  
000228b9  _ZNKSt3__26vectorIPNS_6locale5facetENS_15__sso_allocatorIS3_Lj28EEEE8max_sizeEv                                                                                                                                                                                                            
00019499  _ZNKSt3__26vectorIhNS_9allocatorIhEEE14__annotate_newEj                                                                                                                                                                                                                                    
00020889  _ZNKSt3__26vectorIhNS_9allocatorIhEEE31__annotate_contiguous_containerEPKvS5_S5_S5_                                                                                                                                                                                                        
000212ef  _ZNKSt3__26vectorIhNS_9allocatorIhEEE4dataEv                                                                                                                                                                                                                                               
00021c1d  _ZNKSt3__26vectorIhNS_9allocatorIhEEE8capacityEv                                                                                                                                                                                                                                           
0001da09  _ZNKSt3__26vectorIhNS_9allocatorIhEEE8max_sizeEv                                                                                                                                                                                                                                           
00019a9b  _ZNKSt3__26vectorItNS_9allocatorItEEE11__recommendEj                                                                                                                                                                                                                                       
00019161  _ZNKSt3__26vectorItNS_9allocatorItEEE14__annotate_newEj                                                                                                                                                                                                                                    
00018e5d  _ZNKSt3__26vectorItNS_9allocatorItEEE17__annotate_deleteEv                                                                                                                                                                                                                                 
00020899  _ZNKSt3__26vectorItNS_9allocatorItEEE31__annotate_contiguous_containerEPKvS5_S5_S5_                                                                                                                                                                                                        
000212fd  _ZNKSt3__26vectorItNS_9allocatorItEEE4dataEv                                                                                                                                                                                                                                               
0001fa1d  _ZNKSt3__26vectorItNS_9allocatorItEEE4sizeEv                                                                                                                                                                                                                                               
00021c29  _ZNKSt3__26vectorItNS_9allocatorItEEE8capacityEv                                                                                                                                                                                                                                           
0001da2d  _ZNKSt3__26vectorItNS_9allocatorItEEE8max_sizeEv                                                                                                                                                                                                                                           
000227ad  _ZNKSt3__27codecvtIDiciE10do_unshiftERiPcS3_RS3_                                                                                                                                                                                                                                           
0001896d  _ZNKSt3__27codecvtIDiciE11do_encodingEv                                                                                                                                                                                                                                                    
000189cd  _ZNKSt3__27codecvtIDiciE13do_max_lengthEv                                                                                                                                                                                                                                                  
00018a2d  _ZNKSt3__27codecvtIDiciE16do_always_noconvEv                                                                                                                                                                                                                                               
0001a4ad  _ZNKSt3__27codecvtIDiciE5do_inERiPKcS4_RS4_PDiS6_RS6_                                                                                                                                                                                                                                      
00019d35  _ZNKSt3__27codecvtIDiciE6do_outERiPKDiS4_RS4_PcS6_RS6_                                                                                                                                                                                                                                     
0001f505  _ZNKSt3__27codecvtIDiciE9do_lengthERiPKcS4_j                                                                                                                                                                                                                                               
